
../build/bootloader.elf:	file format elf32-littleriscv

Disassembly of section .text:

80200000 <_start>:
80200000: 17 21 ba 00  	auipc	sp, 0xba2
80200004: 13 01 01 ca  	addi	sp, sp, -0x360
80200008: ef 00 80 01  	jal	0x80200020 <_clear_bss>
8020000c: 17 35 00 00  	auipc	a0, 0x3
80200010: 13 05 05 d1  	addi	a0, a0, -0x2f0
80200014: ef 00 c0 02  	jal	0x80200040 <puts>
80200018: ef 20 d0 4d  	jal	0x80202cf4 <kmain>
8020001c: 6f 00 00 00  	j	0x8020001c <_start+0x1c>

80200020 <_clear_bss>:
80200020: 17 05 10 00  	auipc	a0, 0x100
80200024: 13 05 05 fe  	addi	a0, a0, -0x20
80200028: 97 25 9a 00  	auipc	a1, 0x9a2
8020002c: 93 85 85 c7  	addi	a1, a1, -0x388
80200030: 63 06 b5 00  	beq	a0, a1, 0x8020003c <_clear_bss+0x1c>
80200034: 23 20 05 00  	sw	zero, 0x0(a0)
80200038: 13 05 45 00  	addi	a0, a0, 0x4
8020003c: 67 80 00 00  	ret

80200040 <puts>:
80200040: 93 02 05 00  	mv	t0, a0
80200044: 13 01 c1 ff  	addi	sp, sp, -0x4
80200048: 23 20 11 00  	sw	ra, 0x0(sp)

8020004c <loop_puts>:
8020004c: 03 c3 02 00  	lbu	t1, 0x0(t0)
80200050: 63 08 03 00  	beqz	t1, 0x80200060 <end_puts>
80200054: ef 00 80 01  	jal	0x8020006c <putc>
80200058: 93 82 12 00  	addi	t0, t0, 0x1
8020005c: 6f f0 1f ff  	j	0x8020004c <loop_puts>

80200060 <end_puts>:
80200060: 83 20 01 00  	lw	ra, 0x0(sp)
80200064: 13 01 41 00  	addi	sp, sp, 0x4
80200068: 67 80 00 00  	ret

8020006c <putc>:
8020006c: b7 03 00 10  	lui	t2, 0x10000
80200070: 23 80 63 00  	sb	t1, 0x0(t2)
80200074: 67 80 00 00  	ret

80200078 <_fill_space>:
		...
802001fc: 00 00        	<unknown>

802001fe <_signature>:
802001fe: 55 aa        	<unknown>
80200200: 00 00        	<unknown>
80200202: 00 00        	<unknown>

80200204 <read_csr_mtime>:
80200204: 13 01 01 fe  	addi	sp, sp, -0x20
80200208: 23 2e 81 00  	sw	s0, 0x1c(sp)
8020020c: 13 04 01 02  	addi	s0, sp, 0x20
80200210: 23 26 04 fe  	sw	zero, -0x14(s0)
80200214: 23 24 04 fe  	sw	zero, -0x18(s0)
80200218: 73 23 10 c0  	rdtime	t1
8020021c: 23 26 64 fe  	sw	t1, -0x14(s0)
80200220: 73 23 10 c8  	rdtimeh	t1
80200224: 23 24 64 fe  	sw	t1, -0x18(s0)
80200228: 03 23 84 fe  	lw	t1, -0x18(s0)
8020022c: 13 08 03 00  	mv	a6, t1
80200230: 93 08 00 00  	li	a7, 0x0
80200234: 93 17 08 00  	slli	a5, a6, 0x0
80200238: 13 07 00 00  	li	a4, 0x0
8020023c: 03 28 c4 fe  	lw	a6, -0x14(s0)
80200240: 13 06 08 00  	mv	a2, a6
80200244: 93 06 00 00  	li	a3, 0x0
80200248: 33 65 c7 00  	or	a0, a4, a2
8020024c: b3 e5 d7 00  	or	a1, a5, a3
80200250: 13 07 05 00  	mv	a4, a0
80200254: 93 87 05 00  	mv	a5, a1
80200258: 13 05 07 00  	mv	a0, a4
8020025c: 93 85 07 00  	mv	a1, a5
80200260: 03 24 c1 01  	lw	s0, 0x1c(sp)
80200264: 13 01 01 02  	addi	sp, sp, 0x20
80200268: 67 80 00 00  	ret

8020026c <syscall>:
8020026c: 13 01 01 fd  	addi	sp, sp, -0x30
80200270: 23 26 81 02  	sw	s0, 0x2c(sp)
80200274: 13 04 01 03  	addi	s0, sp, 0x30
80200278: 23 26 a4 fe  	sw	a0, -0x14(s0)
8020027c: 23 24 b4 fe  	sw	a1, -0x18(s0)
80200280: 23 22 c4 fe  	sw	a2, -0x1c(s0)
80200284: 23 20 d4 fe  	sw	a3, -0x20(s0)
80200288: 23 2e e4 fc  	sw	a4, -0x24(s0)
8020028c: 23 2c f4 fc  	sw	a5, -0x28(s0)
80200290: 23 2a 04 fd  	sw	a6, -0x2c(s0)
80200294: 23 28 14 fd  	sw	a7, -0x30(s0)
80200298: b7 07 30 80  	lui	a5, 0x80300
8020029c: 93 87 07 00  	mv	a5, a5
802002a0: 03 27 c4 fe  	lw	a4, -0x14(s0)
802002a4: 23 a0 e7 00  	sw	a4, 0x0(a5)
802002a8: b7 07 30 80  	lui	a5, 0x80300
802002ac: 93 87 07 00  	mv	a5, a5
802002b0: 03 27 84 fe  	lw	a4, -0x18(s0)
802002b4: 23 a2 e7 00  	sw	a4, 0x4(a5)
802002b8: b7 07 30 80  	lui	a5, 0x80300
802002bc: 93 87 07 00  	mv	a5, a5
802002c0: 03 27 44 fe  	lw	a4, -0x1c(s0)
802002c4: 23 a4 e7 00  	sw	a4, 0x8(a5)
802002c8: b7 07 30 80  	lui	a5, 0x80300
802002cc: 93 87 07 00  	mv	a5, a5
802002d0: 03 27 04 fe  	lw	a4, -0x20(s0)
802002d4: 23 a6 e7 00  	sw	a4, 0xc(a5)
802002d8: b7 07 30 80  	lui	a5, 0x80300
802002dc: 93 87 07 00  	mv	a5, a5
802002e0: 03 27 c4 fd  	lw	a4, -0x24(s0)
802002e4: 23 a8 e7 00  	sw	a4, 0x10(a5)
802002e8: b7 07 30 80  	lui	a5, 0x80300
802002ec: 93 87 07 00  	mv	a5, a5
802002f0: 03 27 84 fd  	lw	a4, -0x28(s0)
802002f4: 23 aa e7 00  	sw	a4, 0x14(a5)
802002f8: b7 07 30 80  	lui	a5, 0x80300
802002fc: 93 87 07 00  	mv	a5, a5
80200300: 03 27 44 fd  	lw	a4, -0x2c(s0)
80200304: 23 ac e7 00  	sw	a4, 0x18(a5)
80200308: b7 07 30 80  	lui	a5, 0x80300
8020030c: 93 87 07 00  	mv	a5, a5
80200310: 03 27 04 fd  	lw	a4, -0x30(s0)
80200314: 23 ae e7 00  	sw	a4, 0x1c(a5)
80200318: 73 00 00 00  	ecall
8020031c: 13 00 00 00  	nop
80200320: 03 24 c1 02  	lw	s0, 0x2c(sp)
80200324: 13 01 01 03  	addi	sp, sp, 0x30
80200328: 67 80 00 00  	ret

8020032c <sys_yield>:
8020032c: 13 01 01 ff  	addi	sp, sp, -0x10
80200330: 23 26 81 00  	sw	s0, 0xc(sp)
80200334: 13 04 01 01  	addi	s0, sp, 0x10
80200338: b7 27 da 80  	lui	a5, 0x80da2
8020033c: 13 07 f0 ff  	li	a4, -0x1
80200340: 23 8e e7 ca  	sb	a4, -0x344(a5)
80200344: 13 00 00 00  	nop
80200348: 03 24 c1 00  	lw	s0, 0xc(sp)
8020034c: 13 01 01 01  	addi	sp, sp, 0x10
80200350: 67 80 00 00  	ret

80200354 <sys_write>:
80200354: 13 01 01 fd  	addi	sp, sp, -0x30
80200358: 23 26 81 02  	sw	s0, 0x2c(sp)
8020035c: 13 04 01 03  	addi	s0, sp, 0x30
80200360: 93 07 05 00  	mv	a5, a0
80200364: 23 2c b4 fc  	sw	a1, -0x28(s0)
80200368: 23 2a c4 fc  	sw	a2, -0x2c(s0)
8020036c: a3 0f f4 fc  	sb	a5, -0x21(s0)
80200370: 23 24 04 fe  	sw	zero, -0x18(s0)
80200374: 03 47 f4 fd  	lbu	a4, -0x21(s0)
80200378: 93 07 10 00  	li	a5, 0x1
8020037c: 63 12 f7 02  	bne	a4, a5, 0x802003a0 <sys_write+0x4c>
80200380: b7 37 20 80  	lui	a5, 0x80203
80200384: 83 a7 87 0a  	lw	a5, 0xa8(a5)
80200388: 23 24 f4 fe  	sw	a5, -0x18(s0)
8020038c: 83 27 84 fd  	lw	a5, -0x28(s0)
80200390: 03 c7 07 00  	lbu	a4, 0x0(a5)
80200394: 83 27 84 fe  	lw	a5, -0x18(s0)
80200398: 23 80 e7 00  	sb	a4, 0x0(a5)
8020039c: 6f 00 40 04  	j	0x802003e0 <sys_write+0x8c>
802003a0: 23 26 04 fe  	sw	zero, -0x14(s0)
802003a4: 6f 00 00 03  	j	0x802003d4 <sys_write+0x80>
802003a8: 03 27 84 fd  	lw	a4, -0x28(s0)
802003ac: 83 27 c4 fe  	lw	a5, -0x14(s0)
802003b0: 33 07 f7 00  	add	a4, a4, a5
802003b4: 83 26 84 fe  	lw	a3, -0x18(s0)
802003b8: 83 27 c4 fe  	lw	a5, -0x14(s0)
802003bc: b3 87 f6 00  	add	a5, a3, a5
802003c0: 03 47 07 00  	lbu	a4, 0x0(a4)
802003c4: 23 80 e7 00  	sb	a4, 0x0(a5)
802003c8: 83 27 c4 fe  	lw	a5, -0x14(s0)
802003cc: 93 87 17 00  	addi	a5, a5, 0x1
802003d0: 23 26 f4 fe  	sw	a5, -0x14(s0)
802003d4: 03 27 c4 fe  	lw	a4, -0x14(s0)
802003d8: 83 27 44 fd  	lw	a5, -0x2c(s0)
802003dc: e3 66 f7 fc  	bltu	a4, a5, 0x802003a8 <sys_write+0x54>
802003e0: 03 24 c1 02  	lw	s0, 0x2c(sp)
802003e4: 13 01 01 03  	addi	sp, sp, 0x30
802003e8: 67 80 00 00  	ret

802003ec <sys_get_time>:
802003ec: 13 01 01 ff  	addi	sp, sp, -0x10
802003f0: 23 26 11 00  	sw	ra, 0xc(sp)
802003f4: 23 24 81 00  	sw	s0, 0x8(sp)
802003f8: 13 04 01 01  	addi	s0, sp, 0x10
802003fc: ef f0 9f e0  	jal	0x80200204 <read_csr_mtime>
80200400: 13 07 05 00  	mv	a4, a0
80200404: 93 87 05 00  	mv	a5, a1
80200408: 13 05 07 00  	mv	a0, a4
8020040c: 93 85 07 00  	mv	a1, a5
80200410: 83 20 c1 00  	lw	ra, 0xc(sp)
80200414: 03 24 81 00  	lw	s0, 0x8(sp)
80200418: 13 01 01 01  	addi	sp, sp, 0x10
8020041c: 67 80 00 00  	ret

80200420 <enable_uart_rx_interrupt>:
80200420: 13 01 01 ff  	addi	sp, sp, -0x10
80200424: 23 26 81 00  	sw	s0, 0xc(sp)
80200428: 13 04 01 01  	addi	s0, sp, 0x10
8020042c: b7 37 20 80  	lui	a5, 0x80203
80200430: 83 a7 87 0a  	lw	a5, 0xa8(a5)
80200434: 93 87 17 00  	addi	a5, a5, 0x1
80200438: 13 07 10 00  	li	a4, 0x1
8020043c: 23 80 e7 00  	sb	a4, 0x0(a5)
80200440: 13 00 00 00  	nop
80200444: 03 24 c1 00  	lw	s0, 0xc(sp)
80200448: 13 01 01 01  	addi	sp, sp, 0x10
8020044c: 67 80 00 00  	ret

80200450 <uart_readchar>:
80200450: 13 01 01 ff  	addi	sp, sp, -0x10
80200454: 23 26 81 00  	sw	s0, 0xc(sp)
80200458: 13 04 01 01  	addi	s0, sp, 0x10
8020045c: b7 37 20 80  	lui	a5, 0x80203
80200460: 83 a7 87 0a  	lw	a5, 0xa8(a5)
80200464: 83 c7 07 00  	lbu	a5, 0x0(a5)
80200468: 93 f7 f7 0f  	andi	a5, a5, 0xff
8020046c: 13 85 07 00  	mv	a0, a5
80200470: 03 24 c1 00  	lw	s0, 0xc(sp)
80200474: 13 01 01 01  	addi	sp, sp, 0x10
80200478: 67 80 00 00  	ret

8020047c <clear_screen>:
8020047c: 13 01 01 ff  	addi	sp, sp, -0x10
80200480: 23 26 11 00  	sw	ra, 0xc(sp)
80200484: 23 24 81 00  	sw	s0, 0x8(sp)
80200488: 13 04 01 01  	addi	s0, sp, 0x10
8020048c: b7 37 20 80  	lui	a5, 0x80203
80200490: 13 85 c7 0a  	addi	a0, a5, 0xac
80200494: ef 00 80 06  	jal	0x802004fc <uart_prints>
80200498: 13 00 00 00  	nop
8020049c: 83 20 c1 00  	lw	ra, 0xc(sp)
802004a0: 03 24 81 00  	lw	s0, 0x8(sp)
802004a4: 13 01 01 01  	addi	sp, sp, 0x10
802004a8: 67 80 00 00  	ret

802004ac <uart_putchar>:
802004ac: 13 01 01 fe  	addi	sp, sp, -0x20
802004b0: 23 2e 11 00  	sw	ra, 0x1c(sp)
802004b4: 23 2c 81 00  	sw	s0, 0x18(sp)
802004b8: 13 04 01 02  	addi	s0, sp, 0x20
802004bc: 93 07 05 00  	mv	a5, a0
802004c0: a3 07 f4 fe  	sb	a5, -0x11(s0)
802004c4: 93 05 f4 fe  	addi	a1, s0, -0x11
802004c8: 93 08 10 00  	li	a7, 0x1
802004cc: 13 08 00 00  	li	a6, 0x0
802004d0: 93 07 00 00  	li	a5, 0x0
802004d4: 13 07 00 00  	li	a4, 0x0
802004d8: 93 06 00 00  	li	a3, 0x0
802004dc: 13 06 10 00  	li	a2, 0x1
802004e0: 13 05 10 00  	li	a0, 0x1
802004e4: ef f0 9f d8  	jal	0x8020026c <syscall>
802004e8: 13 00 00 00  	nop
802004ec: 83 20 c1 01  	lw	ra, 0x1c(sp)
802004f0: 03 24 81 01  	lw	s0, 0x18(sp)
802004f4: 13 01 01 02  	addi	sp, sp, 0x20
802004f8: 67 80 00 00  	ret

802004fc <uart_prints>:
802004fc: 13 01 01 fe  	addi	sp, sp, -0x20
80200500: 23 2e 11 00  	sw	ra, 0x1c(sp)
80200504: 23 2c 81 00  	sw	s0, 0x18(sp)
80200508: 13 04 01 02  	addi	s0, sp, 0x20
8020050c: 23 26 a4 fe  	sw	a0, -0x14(s0)
80200510: 6f 00 40 03  	j	0x80200544 <uart_prints+0x48>
80200514: 83 27 c4 fe  	lw	a5, -0x14(s0)
80200518: 03 c7 07 00  	lbu	a4, 0x0(a5)
8020051c: 93 07 a0 00  	li	a5, 0xa
80200520: 63 16 f7 00  	bne	a4, a5, 0x8020052c <uart_prints+0x30>
80200524: 13 05 d0 00  	li	a0, 0xd
80200528: ef f0 5f f8  	jal	0x802004ac <uart_putchar>
8020052c: 83 27 c4 fe  	lw	a5, -0x14(s0)
80200530: 13 87 17 00  	addi	a4, a5, 0x1
80200534: 23 26 e4 fe  	sw	a4, -0x14(s0)
80200538: 83 c7 07 00  	lbu	a5, 0x0(a5)
8020053c: 13 85 07 00  	mv	a0, a5
80200540: ef f0 df f6  	jal	0x802004ac <uart_putchar>
80200544: 83 27 c4 fe  	lw	a5, -0x14(s0)
80200548: 83 c7 07 00  	lbu	a5, 0x0(a5)
8020054c: e3 94 07 fc  	bnez	a5, 0x80200514 <uart_prints+0x18>
80200550: 13 00 00 00  	nop
80200554: 83 20 c1 01  	lw	ra, 0x1c(sp)
80200558: 03 24 81 01  	lw	s0, 0x18(sp)
8020055c: 13 01 01 02  	addi	sp, sp, 0x20
80200560: 67 80 00 00  	ret

80200564 <uart_printf>:
80200564: 13 01 01 f9  	addi	sp, sp, -0x70
80200568: 23 26 11 04  	sw	ra, 0x4c(sp)
8020056c: 23 24 81 04  	sw	s0, 0x48(sp)
80200570: 23 22 21 05  	sw	s2, 0x44(sp)
80200574: 23 20 31 05  	sw	s3, 0x40(sp)
80200578: 23 2e 41 03  	sw	s4, 0x3c(sp)
8020057c: 23 2c 51 03  	sw	s5, 0x38(sp)
80200580: 23 2a 61 03  	sw	s6, 0x34(sp)
80200584: 23 28 71 03  	sw	s7, 0x30(sp)
80200588: 13 04 01 05  	addi	s0, sp, 0x50
8020058c: 23 2e a4 fa  	sw	a0, -0x44(s0)
80200590: 23 22 b4 00  	sw	a1, 0x4(s0)
80200594: 23 24 c4 00  	sw	a2, 0x8(s0)
80200598: 23 26 d4 00  	sw	a3, 0xc(s0)
8020059c: 23 28 e4 00  	sw	a4, 0x10(s0)
802005a0: 23 2a f4 00  	sw	a5, 0x14(s0)
802005a4: 23 2c 04 01  	sw	a6, 0x18(s0)
802005a8: 23 2e 14 01  	sw	a7, 0x1c(s0)
802005ac: 93 07 04 02  	addi	a5, s0, 0x20
802005b0: 23 2c f4 fa  	sw	a5, -0x48(s0)
802005b4: 83 27 84 fb  	lw	a5, -0x48(s0)
802005b8: 93 87 47 fe  	addi	a5, a5, -0x1c
802005bc: 23 26 f4 fc  	sw	a5, -0x34(s0)
802005c0: 6f 00 80 29  	j	0x80200858 <uart_printf+0x2f4>
802005c4: 83 27 c4 fb  	lw	a5, -0x44(s0)
802005c8: 03 c7 07 00  	lbu	a4, 0x0(a5)
802005cc: 93 07 50 02  	li	a5, 0x25
802005d0: 63 0e f7 02  	beq	a4, a5, 0x8020060c <uart_printf+0xa8>
802005d4: 83 27 c4 fb  	lw	a5, -0x44(s0)
802005d8: 83 c7 07 00  	lbu	a5, 0x0(a5)
802005dc: 13 85 07 00  	mv	a0, a5
802005e0: ef f0 df ec  	jal	0x802004ac <uart_putchar>
802005e4: 83 27 c4 fb  	lw	a5, -0x44(s0)
802005e8: 03 c7 07 00  	lbu	a4, 0x0(a5)
802005ec: 93 07 a0 00  	li	a5, 0xa
802005f0: 63 16 f7 00  	bne	a4, a5, 0x802005fc <uart_printf+0x98>
802005f4: 13 05 d0 00  	li	a0, 0xd
802005f8: ef f0 5f eb  	jal	0x802004ac <uart_putchar>
802005fc: 83 27 c4 fb  	lw	a5, -0x44(s0)
80200600: 93 87 17 00  	addi	a5, a5, 0x1
80200604: 23 2e f4 fa  	sw	a5, -0x44(s0)
80200608: 6f 00 00 25  	j	0x80200858 <uart_printf+0x2f4>
8020060c: 83 27 c4 fb  	lw	a5, -0x44(s0)
80200610: 93 87 17 00  	addi	a5, a5, 0x1
80200614: 23 2e f4 fa  	sw	a5, -0x44(s0)
80200618: 83 27 c4 fb  	lw	a5, -0x44(s0)
8020061c: 83 c7 07 00  	lbu	a5, 0x0(a5)
80200620: 93 87 d7 f9  	addi	a5, a5, -0x63
80200624: 13 07 50 01  	li	a4, 0x15
80200628: 63 6e f7 0c  	bltu	a4, a5, 0x80200704 <uart_printf+0x1a0>
8020062c: 13 97 27 00  	slli	a4, a5, 0x2
80200630: b7 37 20 80  	lui	a5, 0x80203
80200634: 93 87 c7 d9  	addi	a5, a5, -0x264
80200638: b3 07 f7 00  	add	a5, a4, a5
8020063c: 83 a7 07 00  	lw	a5, 0x0(a5)
80200640: 67 80 07 00  	jr	a5
80200644: 83 27 c4 fc  	lw	a5, -0x34(s0)
80200648: 13 87 47 00  	addi	a4, a5, 0x4
8020064c: 23 26 e4 fc  	sw	a4, -0x34(s0)
80200650: 83 a7 07 00  	lw	a5, 0x0(a5)
80200654: 13 89 07 00  	mv	s2, a5
80200658: 93 d7 f7 41  	srai	a5, a5, 0x1f
8020065c: 93 89 07 00  	mv	s3, a5
80200660: 23 20 24 fd  	sw	s2, -0x40(s0)
80200664: 23 22 34 fd  	sw	s3, -0x3c(s0)
80200668: 6f 00 c0 09  	j	0x80200704 <uart_printf+0x1a0>
8020066c: 83 27 c4 fc  	lw	a5, -0x34(s0)
80200670: 13 87 47 00  	addi	a4, a5, 0x4
80200674: 23 26 e4 fc  	sw	a4, -0x34(s0)
80200678: 83 a7 07 00  	lw	a5, 0x0(a5)
8020067c: 13 8a 07 00  	mv	s4, a5
80200680: 93 0a 00 00  	li	s5, 0x0
80200684: 23 20 44 fd  	sw	s4, -0x40(s0)
80200688: 23 22 54 fd  	sw	s5, -0x3c(s0)
8020068c: 6f 00 80 07  	j	0x80200704 <uart_printf+0x1a0>
80200690: 83 27 c4 fc  	lw	a5, -0x34(s0)
80200694: 13 87 47 00  	addi	a4, a5, 0x4
80200698: 23 26 e4 fc  	sw	a4, -0x34(s0)
8020069c: 83 a7 07 00  	lw	a5, 0x0(a5)
802006a0: 13 8b 07 00  	mv	s6, a5
802006a4: 93 0b 00 00  	li	s7, 0x0
802006a8: 23 20 64 fd  	sw	s6, -0x40(s0)
802006ac: 23 22 74 fd  	sw	s7, -0x3c(s0)
802006b0: 03 27 04 fc  	lw	a4, -0x40(s0)
802006b4: 83 27 44 fc  	lw	a5, -0x3c(s0)
802006b8: 93 77 f7 0f  	andi	a5, a4, 0xff
802006bc: 13 85 07 00  	mv	a0, a5
802006c0: ef f0 df de  	jal	0x802004ac <uart_putchar>
802006c4: 83 27 c4 fb  	lw	a5, -0x44(s0)
802006c8: 93 87 17 00  	addi	a5, a5, 0x1
802006cc: 23 2e f4 fa  	sw	a5, -0x44(s0)
802006d0: 6f 00 80 18  	j	0x80200858 <uart_printf+0x2f4>
802006d4: 83 27 c4 fc  	lw	a5, -0x34(s0)
802006d8: 13 87 47 00  	addi	a4, a5, 0x4
802006dc: 23 26 e4 fc  	sw	a4, -0x34(s0)
802006e0: 83 a7 07 00  	lw	a5, 0x0(a5)
802006e4: 23 20 f4 fc  	sw	a5, -0x40(s0)
802006e8: 83 27 04 fc  	lw	a5, -0x40(s0)
802006ec: 13 85 07 00  	mv	a0, a5
802006f0: ef f0 df e0  	jal	0x802004fc <uart_prints>
802006f4: 83 27 c4 fb  	lw	a5, -0x44(s0)
802006f8: 93 87 17 00  	addi	a5, a5, 0x1
802006fc: 23 2e f4 fa  	sw	a5, -0x44(s0)
80200700: 6f 00 80 15  	j	0x80200858 <uart_printf+0x2f4>
80200704: 03 27 04 fc  	lw	a4, -0x40(s0)
80200708: 83 27 44 fc  	lw	a5, -0x3c(s0)
8020070c: 23 2e e4 fc  	sw	a4, -0x24(s0)
80200710: 83 27 c4 fb  	lw	a5, -0x44(s0)
80200714: 03 c7 07 00  	lbu	a4, 0x0(a5)
80200718: 93 07 40 06  	li	a5, 0x64
8020071c: 63 16 f7 02  	bne	a4, a5, 0x80200748 <uart_printf+0x1e4>
80200720: 03 27 04 fc  	lw	a4, -0x40(s0)
80200724: 83 27 44 fc  	lw	a5, -0x3c(s0)
80200728: 63 d0 07 02  	bgez	a5, 0x80200748 <uart_printf+0x1e4>
8020072c: 13 05 d0 02  	li	a0, 0x2d
80200730: ef f0 df d7  	jal	0x802004ac <uart_putchar>
80200734: 03 27 04 fc  	lw	a4, -0x40(s0)
80200738: 83 27 44 fc  	lw	a5, -0x3c(s0)
8020073c: 93 07 07 00  	mv	a5, a4
80200740: b3 07 f0 40  	neg	a5, a5
80200744: 23 2e f4 fc  	sw	a5, -0x24(s0)
80200748: 83 27 c4 fb  	lw	a5, -0x44(s0)
8020074c: 03 c7 07 00  	lbu	a4, 0x0(a5)
80200750: 93 07 80 07  	li	a5, 0x78
80200754: 63 06 f7 08  	beq	a4, a5, 0x802007e0 <uart_printf+0x27c>
80200758: 93 07 10 00  	li	a5, 0x1
8020075c: 23 2c f4 fc  	sw	a5, -0x28(s0)
80200760: 6f 00 c0 01  	j	0x8020077c <uart_printf+0x218>
80200764: 03 27 84 fd  	lw	a4, -0x28(s0)
80200768: 93 07 07 00  	mv	a5, a4
8020076c: 93 97 27 00  	slli	a5, a5, 0x2
80200770: b3 87 e7 00  	add	a5, a5, a4
80200774: 93 97 17 00  	slli	a5, a5, 0x1
80200778: 23 2c f4 fc  	sw	a5, -0x28(s0)
8020077c: 03 27 c4 fd  	lw	a4, -0x24(s0)
80200780: 83 27 84 fd  	lw	a5, -0x28(s0)
80200784: 33 57 f7 02  	divu	a4, a4, a5
80200788: 93 07 90 00  	li	a5, 0x9
8020078c: e3 ec e7 fc  	bltu	a5, a4, 0x80200764 <uart_printf+0x200>
80200790: 6f 00 40 04  	j	0x802007d4 <uart_printf+0x270>
80200794: 03 27 c4 fd  	lw	a4, -0x24(s0)
80200798: 83 27 84 fd  	lw	a5, -0x28(s0)
8020079c: b3 57 f7 02  	divu	a5, a4, a5
802007a0: 93 f7 f7 0f  	andi	a5, a5, 0xff
802007a4: 93 87 07 03  	addi	a5, a5, 0x30
802007a8: 93 f7 f7 0f  	andi	a5, a5, 0xff
802007ac: 13 85 07 00  	mv	a0, a5
802007b0: ef f0 df cf  	jal	0x802004ac <uart_putchar>
802007b4: 03 27 c4 fd  	lw	a4, -0x24(s0)
802007b8: 83 27 84 fd  	lw	a5, -0x28(s0)
802007bc: b3 77 f7 02  	remu	a5, a4, a5
802007c0: 23 2e f4 fc  	sw	a5, -0x24(s0)
802007c4: 03 27 84 fd  	lw	a4, -0x28(s0)
802007c8: 93 07 a0 00  	li	a5, 0xa
802007cc: b3 57 f7 02  	divu	a5, a4, a5
802007d0: 23 2c f4 fc  	sw	a5, -0x28(s0)
802007d4: 83 27 84 fd  	lw	a5, -0x28(s0)
802007d8: e3 9e 07 fa  	bnez	a5, 0x80200794 <uart_printf+0x230>
802007dc: 6f 00 00 07  	j	0x8020084c <uart_printf+0x2e8>
802007e0: 13 05 00 03  	li	a0, 0x30
802007e4: ef f0 9f cc  	jal	0x802004ac <uart_putchar>
802007e8: 13 05 80 07  	li	a0, 0x78
802007ec: ef f0 1f cc  	jal	0x802004ac <uart_putchar>
802007f0: 93 07 f0 00  	li	a5, 0xf
802007f4: 23 28 f4 fc  	sw	a5, -0x30(s0)
802007f8: 93 07 80 00  	li	a5, 0x8
802007fc: a3 0b f4 fc  	sb	a5, -0x29(s0)
80200800: 6f 00 40 04  	j	0x80200844 <uart_printf+0x2e0>
80200804: 83 47 74 fd  	lbu	a5, -0x29(s0)
80200808: 93 87 f7 ff  	addi	a5, a5, -0x1
8020080c: 93 97 27 00  	slli	a5, a5, 0x2
80200810: 03 27 c4 fd  	lw	a4, -0x24(s0)
80200814: 33 57 f7 00  	srl	a4, a4, a5
80200818: 83 27 04 fd  	lw	a5, -0x30(s0)
8020081c: b3 77 f7 00  	and	a5, a4, a5
80200820: 37 37 20 80  	lui	a4, 0x80203
80200824: 13 07 47 09  	addi	a4, a4, 0x94
80200828: b3 07 f7 00  	add	a5, a4, a5
8020082c: 83 c7 07 00  	lbu	a5, 0x0(a5)
80200830: 13 85 07 00  	mv	a0, a5
80200834: ef f0 9f c7  	jal	0x802004ac <uart_putchar>
80200838: 83 47 74 fd  	lbu	a5, -0x29(s0)
8020083c: 93 87 f7 ff  	addi	a5, a5, -0x1
80200840: a3 0b f4 fc  	sb	a5, -0x29(s0)
80200844: 83 47 74 fd  	lbu	a5, -0x29(s0)
80200848: e3 9e 07 fa  	bnez	a5, 0x80200804 <uart_printf+0x2a0>
8020084c: 83 27 c4 fb  	lw	a5, -0x44(s0)
80200850: 93 87 17 00  	addi	a5, a5, 0x1
80200854: 23 2e f4 fa  	sw	a5, -0x44(s0)
80200858: 83 27 c4 fb  	lw	a5, -0x44(s0)
8020085c: 83 c7 07 00  	lbu	a5, 0x0(a5)
80200860: e3 92 07 d6  	bnez	a5, 0x802005c4 <uart_printf+0x60>
80200864: 13 00 00 00  	nop
80200868: 13 00 00 00  	nop
8020086c: 83 20 c1 04  	lw	ra, 0x4c(sp)
80200870: 03 24 81 04  	lw	s0, 0x48(sp)
80200874: 03 29 41 04  	lw	s2, 0x44(sp)
80200878: 83 29 01 04  	lw	s3, 0x40(sp)
8020087c: 03 2a c1 03  	lw	s4, 0x3c(sp)
80200880: 83 2a 81 03  	lw	s5, 0x38(sp)
80200884: 03 2b 41 03  	lw	s6, 0x34(sp)
80200888: 83 2b 01 03  	lw	s7, 0x30(sp)
8020088c: 13 01 01 07  	addi	sp, sp, 0x70
80200890: 67 80 00 00  	ret

80200894 <read_csr_mtime>:
80200894: 13 01 01 fe  	addi	sp, sp, -0x20
80200898: 23 2e 81 00  	sw	s0, 0x1c(sp)
8020089c: 13 04 01 02  	addi	s0, sp, 0x20
802008a0: 23 26 04 fe  	sw	zero, -0x14(s0)
802008a4: 23 24 04 fe  	sw	zero, -0x18(s0)
802008a8: 73 23 10 c0  	rdtime	t1
802008ac: 23 26 64 fe  	sw	t1, -0x14(s0)
802008b0: 73 23 10 c8  	rdtimeh	t1
802008b4: 23 24 64 fe  	sw	t1, -0x18(s0)
802008b8: 03 23 84 fe  	lw	t1, -0x18(s0)
802008bc: 13 08 03 00  	mv	a6, t1
802008c0: 93 08 00 00  	li	a7, 0x0
802008c4: 93 17 08 00  	slli	a5, a6, 0x0
802008c8: 13 07 00 00  	li	a4, 0x0
802008cc: 03 28 c4 fe  	lw	a6, -0x14(s0)
802008d0: 13 06 08 00  	mv	a2, a6
802008d4: 93 06 00 00  	li	a3, 0x0
802008d8: 33 65 c7 00  	or	a0, a4, a2
802008dc: b3 e5 d7 00  	or	a1, a5, a3
802008e0: 13 07 05 00  	mv	a4, a0
802008e4: 93 87 05 00  	mv	a5, a1
802008e8: 13 05 07 00  	mv	a0, a4
802008ec: 93 85 07 00  	mv	a1, a5
802008f0: 03 24 c1 01  	lw	s0, 0x1c(sp)
802008f4: 13 01 01 02  	addi	sp, sp, 0x20
802008f8: 67 80 00 00  	ret

802008fc <sbi_ecall>:
802008fc: 13 01 01 fe  	addi	sp, sp, -0x20
80200900: 23 2e 81 00  	sw	s0, 0x1c(sp)
80200904: 13 04 01 02  	addi	s0, sp, 0x20
80200908: 23 26 a4 fe  	sw	a0, -0x14(s0)
8020090c: 23 24 b4 fe  	sw	a1, -0x18(s0)
80200910: 23 22 c4 fe  	sw	a2, -0x1c(s0)
80200914: 23 20 d4 fe  	sw	a3, -0x20(s0)
80200918: 03 25 44 fe  	lw	a0, -0x1c(s0)
8020091c: 83 25 04 fe  	lw	a1, -0x20(s0)
80200920: 03 28 84 fe  	lw	a6, -0x18(s0)
80200924: 83 28 c4 fe  	lw	a7, -0x14(s0)
80200928: 73 00 00 00  	ecall
8020092c: 13 00 00 00  	nop
80200930: 03 24 c1 01  	lw	s0, 0x1c(sp)
80200934: 13 01 01 02  	addi	sp, sp, 0x20
80200938: 67 80 00 00  	ret

8020093c <sbi_set_timer>:
8020093c: 13 01 01 fc  	addi	sp, sp, -0x40
80200940: 23 2e 11 02  	sw	ra, 0x3c(sp)
80200944: 23 2c 81 02  	sw	s0, 0x38(sp)
80200948: 13 04 01 04  	addi	s0, sp, 0x40
8020094c: 23 26 a4 fc  	sw	a0, -0x34(s0)
80200950: b7 97 98 00  	lui	a5, 0x989
80200954: 13 87 07 68  	addi	a4, a5, 0x680
80200958: 83 27 c4 fc  	lw	a5, -0x34(s0)
8020095c: b3 57 f7 02  	divu	a5, a4, a5
80200960: 23 26 f4 fe  	sw	a5, -0x14(s0)
80200964: 83 27 c4 fe  	lw	a5, -0x14(s0)
80200968: 13 86 07 00  	mv	a2, a5
8020096c: 93 06 00 00  	li	a3, 0x0
80200970: b7 27 da 80  	lui	a5, 0x80da2
80200974: 03 a5 87 ca  	lw	a0, -0x358(a5)
80200978: 83 a5 c7 ca  	lw	a1, -0x354(a5)
8020097c: 33 07 a6 00  	add	a4, a2, a0
80200980: 13 03 07 00  	mv	t1, a4
80200984: 33 33 c3 00  	sltu	t1, t1, a2
80200988: b3 87 b6 00  	add	a5, a3, a1
8020098c: b3 06 f3 00  	add	a3, t1, a5
80200990: 93 87 06 00  	mv	a5, a3
80200994: 23 20 e4 fe  	sw	a4, -0x20(s0)
80200998: 23 22 f4 fe  	sw	a5, -0x1c(s0)
8020099c: 83 27 04 fe  	lw	a5, -0x20(s0)
802009a0: 23 2e f4 fc  	sw	a5, -0x24(s0)
802009a4: 83 27 44 fe  	lw	a5, -0x1c(s0)
802009a8: 13 d8 07 00  	srli	a6, a5, 0x0
802009ac: 93 08 00 00  	li	a7, 0x0
802009b0: 23 2c 04 fd  	sw	a6, -0x28(s0)
802009b4: 83 26 84 fd  	lw	a3, -0x28(s0)
802009b8: 03 26 c4 fd  	lw	a2, -0x24(s0)
802009bc: 93 05 00 00  	li	a1, 0x0
802009c0: b7 57 49 54  	lui	a5, 0x54495
802009c4: 13 85 57 d4  	addi	a0, a5, -0x2bb
802009c8: ef f0 5f f3  	jal	0x802008fc <sbi_ecall>
802009cc: 13 00 00 00  	nop
802009d0: 83 20 c1 03  	lw	ra, 0x3c(sp)
802009d4: 03 24 81 03  	lw	s0, 0x38(sp)
802009d8: 13 01 01 04  	addi	sp, sp, 0x40
802009dc: 67 80 00 00  	ret

802009e0 <get_mtime>:
802009e0: 13 01 01 ff  	addi	sp, sp, -0x10
802009e4: 23 26 11 00  	sw	ra, 0xc(sp)
802009e8: 23 24 81 00  	sw	s0, 0x8(sp)
802009ec: 13 04 01 01  	addi	s0, sp, 0x10
802009f0: ef f0 5f ea  	jal	0x80200894 <read_csr_mtime>
802009f4: 13 07 05 00  	mv	a4, a0
802009f8: 93 87 05 00  	mv	a5, a1
802009fc: b7 26 da 80  	lui	a3, 0x80da2
80200a00: 23 a4 e6 ca  	sw	a4, -0x358(a3)
80200a04: 23 a6 f6 ca  	sw	a5, -0x354(a3)
80200a08: 13 00 00 00  	nop
80200a0c: 83 20 c1 00  	lw	ra, 0xc(sp)
80200a10: 03 24 81 00  	lw	s0, 0x8(sp)
80200a14: 13 01 01 01  	addi	sp, sp, 0x10
80200a18: 67 80 00 00  	ret

80200a1c <set_mtimecmp>:
80200a1c: 13 01 01 fe  	addi	sp, sp, -0x20
80200a20: 23 2e 11 00  	sw	ra, 0x1c(sp)
80200a24: 23 2c 81 00  	sw	s0, 0x18(sp)
80200a28: 13 04 01 02  	addi	s0, sp, 0x20
80200a2c: 23 26 a4 fe  	sw	a0, -0x14(s0)
80200a30: 03 25 c4 fe  	lw	a0, -0x14(s0)
80200a34: ef f0 9f f0  	jal	0x8020093c <sbi_set_timer>
80200a38: 13 00 00 00  	nop
80200a3c: 83 20 c1 01  	lw	ra, 0x1c(sp)
80200a40: 03 24 81 01  	lw	s0, 0x18(sp)
80200a44: 13 01 01 02  	addi	sp, sp, 0x20
80200a48: 67 80 00 00  	ret

80200a4c <print_ticks>:
80200a4c: 13 01 01 ff  	addi	sp, sp, -0x10
80200a50: 23 26 11 00  	sw	ra, 0xc(sp)
80200a54: 23 24 81 00  	sw	s0, 0x8(sp)
80200a58: 13 04 01 01  	addi	s0, sp, 0x10
80200a5c: b7 27 da 80  	lui	a5, 0x80da2
80200a60: 03 a7 07 cb  	lw	a4, -0x350(a5)
80200a64: 83 a7 47 cb  	lw	a5, -0x34c(a5)
80200a68: 93 07 07 00  	mv	a5, a4
80200a6c: 93 85 07 00  	mv	a1, a5
80200a70: b7 37 20 80  	lui	a5, 0x80203
80200a74: 13 85 47 df  	addi	a0, a5, -0x20c
80200a78: ef f0 df ae  	jal	0x80200564 <uart_printf>
80200a7c: 13 00 00 00  	nop
80200a80: 83 20 c1 00  	lw	ra, 0xc(sp)
80200a84: 03 24 81 00  	lw	s0, 0x8(sp)
80200a88: 13 01 01 01  	addi	sp, sp, 0x10
80200a8c: 67 80 00 00  	ret

80200a90 <memcpy>:
80200a90: 13 01 01 fd  	addi	sp, sp, -0x30
80200a94: 23 26 81 02  	sw	s0, 0x2c(sp)
80200a98: 13 04 01 03  	addi	s0, sp, 0x30
80200a9c: 23 2e a4 fc  	sw	a0, -0x24(s0)
80200aa0: 23 2c b4 fc  	sw	a1, -0x28(s0)
80200aa4: 23 2a c4 fc  	sw	a2, -0x2c(s0)
80200aa8: 83 27 c4 fd  	lw	a5, -0x24(s0)
80200aac: 23 24 f4 fe  	sw	a5, -0x18(s0)
80200ab0: 83 27 84 fd  	lw	a5, -0x28(s0)
80200ab4: 23 22 f4 fe  	sw	a5, -0x1c(s0)
80200ab8: 23 26 04 fe  	sw	zero, -0x14(s0)
80200abc: 6f 00 00 03  	j	0x80200aec <memcpy+0x5c>
80200ac0: 03 27 44 fe  	lw	a4, -0x1c(s0)
80200ac4: 83 27 c4 fe  	lw	a5, -0x14(s0)
80200ac8: 33 07 f7 00  	add	a4, a4, a5
80200acc: 83 26 84 fe  	lw	a3, -0x18(s0)
80200ad0: 83 27 c4 fe  	lw	a5, -0x14(s0)
80200ad4: b3 87 f6 00  	add	a5, a3, a5
80200ad8: 03 47 07 00  	lbu	a4, 0x0(a4)
80200adc: 23 80 e7 00  	sb	a4, 0x0(a5)
80200ae0: 83 27 c4 fe  	lw	a5, -0x14(s0)
80200ae4: 93 87 17 00  	addi	a5, a5, 0x1
80200ae8: 23 26 f4 fe  	sw	a5, -0x14(s0)
80200aec: 03 27 c4 fe  	lw	a4, -0x14(s0)
80200af0: 83 27 44 fd  	lw	a5, -0x2c(s0)
80200af4: e3 66 f7 fc  	bltu	a4, a5, 0x80200ac0 <memcpy+0x30>
80200af8: 13 00 00 00  	nop
80200afc: 13 00 00 00  	nop
80200b00: 03 24 c1 02  	lw	s0, 0x2c(sp)
80200b04: 13 01 01 03  	addi	sp, sp, 0x30
80200b08: 67 80 00 00  	ret

80200b0c <memset>:
80200b0c: 13 01 01 fd  	addi	sp, sp, -0x30
80200b10: 23 26 81 02  	sw	s0, 0x2c(sp)
80200b14: 13 04 01 03  	addi	s0, sp, 0x30
80200b18: 23 2e a4 fc  	sw	a0, -0x24(s0)
80200b1c: 23 2c b4 fc  	sw	a1, -0x28(s0)
80200b20: 23 2a c4 fc  	sw	a2, -0x2c(s0)
80200b24: 83 27 c4 fd  	lw	a5, -0x24(s0)
80200b28: 23 24 f4 fe  	sw	a5, -0x18(s0)
80200b2c: 23 26 04 fe  	sw	zero, -0x14(s0)
80200b30: 6f 00 80 02  	j	0x80200b58 <memset+0x4c>
80200b34: 03 27 84 fe  	lw	a4, -0x18(s0)
80200b38: 83 27 c4 fe  	lw	a5, -0x14(s0)
80200b3c: b3 07 f7 00  	add	a5, a4, a5
80200b40: 03 27 44 fd  	lw	a4, -0x2c(s0)
80200b44: 13 77 f7 0f  	andi	a4, a4, 0xff
80200b48: 23 80 e7 00  	sb	a4, 0x0(a5)
80200b4c: 83 27 c4 fe  	lw	a5, -0x14(s0)
80200b50: 93 87 17 00  	addi	a5, a5, 0x1
80200b54: 23 26 f4 fe  	sw	a5, -0x14(s0)
80200b58: 03 27 c4 fe  	lw	a4, -0x14(s0)
80200b5c: 83 27 84 fd  	lw	a5, -0x28(s0)
80200b60: e3 6a f7 fc  	bltu	a4, a5, 0x80200b34 <memset+0x28>
80200b64: 13 00 00 00  	nop
80200b68: 13 00 00 00  	nop
80200b6c: 03 24 c1 02  	lw	s0, 0x2c(sp)
80200b70: 13 01 01 03  	addi	sp, sp, 0x30
80200b74: 67 80 00 00  	ret

80200b78 <reset_all_plic_source_pry>:
80200b78: 13 01 01 fe  	addi	sp, sp, -0x20
80200b7c: 23 2e 81 00  	sw	s0, 0x1c(sp)
80200b80: 13 04 01 02  	addi	s0, sp, 0x20
80200b84: 23 17 04 fe  	sh	zero, -0x12(s0)
80200b88: 6f 00 40 02  	j	0x80200bac <reset_all_plic_source_pry+0x34>
80200b8c: b7 37 20 80  	lui	a5, 0x80203
80200b90: 03 a7 07 0b  	lw	a4, 0xb0(a5)
80200b94: 83 57 e4 fe  	lhu	a5, -0x12(s0)
80200b98: b3 07 f7 00  	add	a5, a4, a5
80200b9c: 23 a0 07 00  	sw	zero, 0x0(a5)
80200ba0: 83 57 e4 fe  	lhu	a5, -0x12(s0)
80200ba4: 93 87 47 00  	addi	a5, a5, 0x4
80200ba8: 23 17 f4 fe  	sh	a5, -0x12(s0)
80200bac: 03 57 e4 fe  	lhu	a4, -0x12(s0)
80200bb0: b7 17 00 00  	lui	a5, 0x1
80200bb4: e3 6c f7 fc  	bltu	a4, a5, 0x80200b8c <reset_all_plic_source_pry+0x14>
80200bb8: 13 00 00 00  	nop
80200bbc: 13 00 00 00  	nop
80200bc0: 03 24 c1 01  	lw	s0, 0x1c(sp)
80200bc4: 13 01 01 02  	addi	sp, sp, 0x20
80200bc8: 67 80 00 00  	ret

80200bcc <reset_plic_source_pry>:
80200bcc: 13 01 01 fe  	addi	sp, sp, -0x20
80200bd0: 23 2e 81 00  	sw	s0, 0x1c(sp)
80200bd4: 13 04 01 02  	addi	s0, sp, 0x20
80200bd8: 93 07 05 00  	mv	a5, a0
80200bdc: 23 17 f4 fe  	sh	a5, -0x12(s0)
80200be0: b7 37 20 80  	lui	a5, 0x80203
80200be4: 83 a7 07 0b  	lw	a5, 0xb0(a5)
80200be8: 03 57 e4 fe  	lhu	a4, -0x12(s0)
80200bec: 13 17 27 00  	slli	a4, a4, 0x2
80200bf0: b3 87 e7 00  	add	a5, a5, a4
80200bf4: 23 a0 07 00  	sw	zero, 0x0(a5)
80200bf8: 13 00 00 00  	nop
80200bfc: 03 24 c1 01  	lw	s0, 0x1c(sp)
80200c00: 13 01 01 02  	addi	sp, sp, 0x20
80200c04: 67 80 00 00  	ret

80200c08 <set_plic_source_pry>:
80200c08: 13 01 01 fe  	addi	sp, sp, -0x20
80200c0c: 23 2e 81 00  	sw	s0, 0x1c(sp)
80200c10: 13 04 01 02  	addi	s0, sp, 0x20
80200c14: 93 07 05 00  	mv	a5, a0
80200c18: 23 24 b4 fe  	sw	a1, -0x18(s0)
80200c1c: 23 17 f4 fe  	sh	a5, -0x12(s0)
80200c20: b7 37 20 80  	lui	a5, 0x80203
80200c24: 83 a7 07 0b  	lw	a5, 0xb0(a5)
80200c28: 03 57 e4 fe  	lhu	a4, -0x12(s0)
80200c2c: 13 17 27 00  	slli	a4, a4, 0x2
80200c30: b3 87 e7 00  	add	a5, a5, a4
80200c34: 03 27 84 fe  	lw	a4, -0x18(s0)
80200c38: 13 77 77 00  	andi	a4, a4, 0x7
80200c3c: 23 a0 e7 00  	sw	a4, 0x0(a5)
80200c40: 13 00 00 00  	nop
80200c44: 03 24 c1 01  	lw	s0, 0x1c(sp)
80200c48: 13 01 01 02  	addi	sp, sp, 0x20
80200c4c: 67 80 00 00  	ret

80200c50 <reset_all_plic_int_en>:
80200c50: 13 01 01 fd  	addi	sp, sp, -0x30
80200c54: 23 26 81 02  	sw	s0, 0x2c(sp)
80200c58: 13 04 01 03  	addi	s0, sp, 0x30
80200c5c: 23 2e a4 fc  	sw	a0, -0x24(s0)
80200c60: 23 26 04 fe  	sw	zero, -0x14(s0)
80200c64: 6f 00 c0 02  	j	0x80200c90 <reset_all_plic_int_en+0x40>
80200c68: b7 37 20 80  	lui	a5, 0x80203
80200c6c: 03 a7 07 0b  	lw	a4, 0xb0(a5)
80200c70: 83 26 c4 fd  	lw	a3, -0x24(s0)
80200c74: 83 27 c4 fe  	lw	a5, -0x14(s0)
80200c78: b3 87 f6 00  	add	a5, a3, a5
80200c7c: b3 07 f7 00  	add	a5, a4, a5
80200c80: 23 a0 07 00  	sw	zero, 0x0(a5)
80200c84: 83 27 c4 fe  	lw	a5, -0x14(s0)
80200c88: 93 87 47 00  	addi	a5, a5, 0x4
80200c8c: 23 26 f4 fe  	sw	a5, -0x14(s0)
80200c90: 03 27 c4 fe  	lw	a4, -0x14(s0)
80200c94: 93 07 f0 07  	li	a5, 0x7f
80200c98: e3 f8 e7 fc  	bgeu	a5, a4, 0x80200c68 <reset_all_plic_int_en+0x18>
80200c9c: 13 00 00 00  	nop
80200ca0: 13 00 00 00  	nop
80200ca4: 03 24 c1 02  	lw	s0, 0x2c(sp)
80200ca8: 13 01 01 03  	addi	sp, sp, 0x30
80200cac: 67 80 00 00  	ret

80200cb0 <set_plic_source_int_en>:
80200cb0: 13 01 01 fe  	addi	sp, sp, -0x20
80200cb4: 23 2e 81 00  	sw	s0, 0x1c(sp)
80200cb8: 13 04 01 02  	addi	s0, sp, 0x20
80200cbc: 23 26 a4 fe  	sw	a0, -0x14(s0)
80200cc0: 93 87 05 00  	mv	a5, a1
80200cc4: 23 15 f4 fe  	sh	a5, -0x16(s0)
80200cc8: b7 37 20 80  	lui	a5, 0x80203
80200ccc: 03 a7 07 0b  	lw	a4, 0xb0(a5)
80200cd0: 83 57 a4 fe  	lhu	a5, -0x16(s0)
80200cd4: 93 d7 57 00  	srli	a5, a5, 0x5
80200cd8: 93 95 07 01  	slli	a1, a5, 0x10
80200cdc: 93 d5 05 01  	srli	a1, a1, 0x10
80200ce0: 93 86 05 00  	mv	a3, a1
80200ce4: 83 27 c4 fe  	lw	a5, -0x14(s0)
80200ce8: b3 87 f6 00  	add	a5, a3, a5
80200cec: b3 07 f7 00  	add	a5, a4, a5
80200cf0: 83 a6 07 00  	lw	a3, 0x0(a5)
80200cf4: 83 57 a4 fe  	lhu	a5, -0x16(s0)
80200cf8: 93 f7 f7 01  	andi	a5, a5, 0x1f
80200cfc: 13 07 10 00  	li	a4, 0x1
80200d00: 33 17 f7 00  	sll	a4, a4, a5
80200d04: b7 37 20 80  	lui	a5, 0x80203
80200d08: 03 a6 07 0b  	lw	a2, 0xb0(a5)
80200d0c: 83 27 c4 fe  	lw	a5, -0x14(s0)
80200d10: b3 87 f5 00  	add	a5, a1, a5
80200d14: b3 07 f6 00  	add	a5, a2, a5
80200d18: 33 e7 e6 00  	or	a4, a3, a4
80200d1c: 23 a0 e7 00  	sw	a4, 0x0(a5)
80200d20: 13 00 00 00  	nop
80200d24: 03 24 c1 01  	lw	s0, 0x1c(sp)
80200d28: 13 01 01 02  	addi	sp, sp, 0x20
80200d2c: 67 80 00 00  	ret

80200d30 <reset_plic_pry_trsh>:
80200d30: 13 01 01 fe  	addi	sp, sp, -0x20
80200d34: 23 2e 81 00  	sw	s0, 0x1c(sp)
80200d38: 13 04 01 02  	addi	s0, sp, 0x20
80200d3c: 23 26 a4 fe  	sw	a0, -0x14(s0)
80200d40: b7 37 20 80  	lui	a5, 0x80203
80200d44: 03 a7 07 0b  	lw	a4, 0xb0(a5)
80200d48: 83 27 c4 fe  	lw	a5, -0x14(s0)
80200d4c: b3 07 f7 00  	add	a5, a4, a5
80200d50: 23 a0 07 00  	sw	zero, 0x0(a5)
80200d54: 13 00 00 00  	nop
80200d58: 03 24 c1 01  	lw	s0, 0x1c(sp)
80200d5c: 13 01 01 02  	addi	sp, sp, 0x20
80200d60: 67 80 00 00  	ret

80200d64 <set_plic_pry_trsh>:
80200d64: 13 01 01 fe  	addi	sp, sp, -0x20
80200d68: 23 2e 81 00  	sw	s0, 0x1c(sp)
80200d6c: 13 04 01 02  	addi	s0, sp, 0x20
80200d70: 23 26 a4 fe  	sw	a0, -0x14(s0)
80200d74: 23 24 b4 fe  	sw	a1, -0x18(s0)
80200d78: b7 37 20 80  	lui	a5, 0x80203
80200d7c: 03 a7 07 0b  	lw	a4, 0xb0(a5)
80200d80: 83 27 c4 fe  	lw	a5, -0x14(s0)
80200d84: b3 07 f7 00  	add	a5, a4, a5
80200d88: 03 27 84 fe  	lw	a4, -0x18(s0)
80200d8c: 13 77 77 00  	andi	a4, a4, 0x7
80200d90: 23 a0 e7 00  	sw	a4, 0x0(a5)
80200d94: 13 00 00 00  	nop
80200d98: 03 24 c1 01  	lw	s0, 0x1c(sp)
80200d9c: 13 01 01 02  	addi	sp, sp, 0x20
80200da0: 67 80 00 00  	ret

80200da4 <read_claim_plic_int_msg>:
80200da4: 13 01 01 fe  	addi	sp, sp, -0x20
80200da8: 23 2e 81 00  	sw	s0, 0x1c(sp)
80200dac: 13 04 01 02  	addi	s0, sp, 0x20
80200db0: 23 26 a4 fe  	sw	a0, -0x14(s0)
80200db4: b7 37 20 80  	lui	a5, 0x80203
80200db8: 03 a7 07 0b  	lw	a4, 0xb0(a5)
80200dbc: 83 27 c4 fe  	lw	a5, -0x14(s0)
80200dc0: b3 07 f7 00  	add	a5, a4, a5
80200dc4: 83 a7 07 00  	lw	a5, 0x0(a5)
80200dc8: 13 85 07 00  	mv	a0, a5
80200dcc: 03 24 c1 01  	lw	s0, 0x1c(sp)
80200dd0: 13 01 01 02  	addi	sp, sp, 0x20
80200dd4: 67 80 00 00  	ret

80200dd8 <send_complete_plic_int_ID>:
80200dd8: 13 01 01 fe  	addi	sp, sp, -0x20
80200ddc: 23 2e 81 00  	sw	s0, 0x1c(sp)
80200de0: 13 04 01 02  	addi	s0, sp, 0x20
80200de4: 23 26 a4 fe  	sw	a0, -0x14(s0)
80200de8: 23 24 b4 fe  	sw	a1, -0x18(s0)
80200dec: b7 37 20 80  	lui	a5, 0x80203
80200df0: 03 a7 07 0b  	lw	a4, 0xb0(a5)
80200df4: 83 27 c4 fe  	lw	a5, -0x14(s0)
80200df8: b3 07 f7 00  	add	a5, a4, a5
80200dfc: 03 27 84 fe  	lw	a4, -0x18(s0)
80200e00: 23 a0 e7 00  	sw	a4, 0x0(a5)
80200e04: 13 00 00 00  	nop
80200e08: 03 24 c1 01  	lw	s0, 0x1c(sp)
80200e0c: 13 01 01 02  	addi	sp, sp, 0x20
80200e10: 67 80 00 00  	ret

80200e14 <strlen>:
80200e14: 13 01 01 fd  	addi	sp, sp, -0x30
80200e18: 23 26 81 02  	sw	s0, 0x2c(sp)
80200e1c: 13 04 01 03  	addi	s0, sp, 0x30
80200e20: 23 2e a4 fc  	sw	a0, -0x24(s0)
80200e24: 23 26 04 fe  	sw	zero, -0x14(s0)
80200e28: 6f 00 40 02  	j	0x80200e4c <strlen+0x38>
80200e2c: 83 27 c4 fe  	lw	a5, -0x14(s0)
80200e30: 93 87 17 00  	addi	a5, a5, 0x1
80200e34: 23 26 f4 fe  	sw	a5, -0x14(s0)
80200e38: 03 27 c4 fe  	lw	a4, -0x14(s0)
80200e3c: b7 07 02 00  	lui	a5, 0x20
80200e40: 63 66 f7 00  	bltu	a4, a5, 0x80200e4c <strlen+0x38>
80200e44: 93 07 f0 ff  	li	a5, -0x1
80200e48: 6f 00 c0 01  	j	0x80200e64 <strlen+0x50>
80200e4c: 83 27 c4 fd  	lw	a5, -0x24(s0)
80200e50: 13 87 17 00  	addi	a4, a5, 0x1
80200e54: 23 2e e4 fc  	sw	a4, -0x24(s0)
80200e58: 83 c7 07 00  	lbu	a5, 0x0(a5)
80200e5c: e3 98 07 fc  	bnez	a5, 0x80200e2c <strlen+0x18>
80200e60: 83 27 c4 fe  	lw	a5, -0x14(s0)
80200e64: 13 85 07 00  	mv	a0, a5
80200e68: 03 24 c1 02  	lw	s0, 0x2c(sp)
80200e6c: 13 01 01 03  	addi	sp, sp, 0x30
80200e70: 67 80 00 00  	ret

80200e74 <next_char_is>:
80200e74: 13 01 01 fe  	addi	sp, sp, -0x20
80200e78: 23 2e 81 00  	sw	s0, 0x1c(sp)
80200e7c: 13 04 01 02  	addi	s0, sp, 0x20
80200e80: 23 26 a4 fe  	sw	a0, -0x14(s0)
80200e84: 93 87 05 00  	mv	a5, a1
80200e88: a3 05 f4 fe  	sb	a5, -0x15(s0)
80200e8c: 83 27 c4 fe  	lw	a5, -0x14(s0)
80200e90: 93 87 17 00  	addi	a5, a5, 0x1
80200e94: 83 c7 07 00  	lbu	a5, 0x0(a5)
80200e98: 03 47 b4 fe  	lbu	a4, -0x15(s0)
80200e9c: b3 07 f7 40  	sub	a5, a4, a5
80200ea0: 93 b7 17 00  	seqz	a5, a5
80200ea4: 93 f7 f7 0f  	andi	a5, a5, 0xff
80200ea8: 13 85 07 00  	mv	a0, a5
80200eac: 03 24 c1 01  	lw	s0, 0x1c(sp)
80200eb0: 13 01 01 02  	addi	sp, sp, 0x20
80200eb4: 67 80 00 00  	ret

80200eb8 <numerical_to_data>:
80200eb8: 13 01 01 fe  	addi	sp, sp, -0x20
80200ebc: 23 2e 81 00  	sw	s0, 0x1c(sp)
80200ec0: 13 04 01 02  	addi	s0, sp, 0x20
80200ec4: 93 07 05 00  	mv	a5, a0
80200ec8: a3 07 f4 fe  	sb	a5, -0x11(s0)
80200ecc: 83 47 f4 fe  	lbu	a5, -0x11(s0)
80200ed0: 93 87 07 fd  	addi	a5, a5, -0x30
80200ed4: 93 f7 f7 0f  	andi	a5, a5, 0xff
80200ed8: 13 85 07 00  	mv	a0, a5
80200edc: 03 24 c1 01  	lw	s0, 0x1c(sp)
80200ee0: 13 01 01 02  	addi	sp, sp, 0x20
80200ee4: 67 80 00 00  	ret

80200ee8 <strncpy>:
80200ee8: 13 01 01 fd  	addi	sp, sp, -0x30
80200eec: 23 26 81 02  	sw	s0, 0x2c(sp)
80200ef0: 13 04 01 03  	addi	s0, sp, 0x30
80200ef4: 23 2e a4 fc  	sw	a0, -0x24(s0)
80200ef8: 23 2c b4 fc  	sw	a1, -0x28(s0)
80200efc: 23 2a c4 fc  	sw	a2, -0x2c(s0)
80200f00: 23 26 04 fe  	sw	zero, -0x14(s0)
80200f04: 83 27 c4 fd  	lw	a5, -0x24(s0)
80200f08: 23 80 07 00  	sb	zero, 0x0(a5)
80200f0c: 23 24 04 fe  	sw	zero, -0x18(s0)
80200f10: 6f 00 00 05  	j	0x80200f60 <strncpy+0x78>
80200f14: 03 27 84 fd  	lw	a4, -0x28(s0)
80200f18: 83 27 84 fe  	lw	a5, -0x18(s0)
80200f1c: 33 07 f7 00  	add	a4, a4, a5
80200f20: 83 26 c4 fd  	lw	a3, -0x24(s0)
80200f24: 83 27 84 fe  	lw	a5, -0x18(s0)
80200f28: b3 87 f6 00  	add	a5, a3, a5
80200f2c: 03 47 07 00  	lbu	a4, 0x0(a4)
80200f30: 23 80 e7 00  	sb	a4, 0x0(a5)
80200f34: 83 27 c4 fe  	lw	a5, -0x14(s0)
80200f38: 93 87 17 00  	addi	a5, a5, 0x1
80200f3c: 23 26 f4 fe  	sw	a5, -0x14(s0)
80200f40: 03 27 84 fd  	lw	a4, -0x28(s0)
80200f44: 83 27 84 fe  	lw	a5, -0x18(s0)
80200f48: b3 07 f7 00  	add	a5, a4, a5
80200f4c: 83 c7 07 00  	lbu	a5, 0x0(a5)
80200f50: 63 80 07 02  	beqz	a5, 0x80200f70 <strncpy+0x88>
80200f54: 83 27 84 fe  	lw	a5, -0x18(s0)
80200f58: 93 87 17 00  	addi	a5, a5, 0x1
80200f5c: 23 24 f4 fe  	sw	a5, -0x18(s0)
80200f60: 03 27 84 fe  	lw	a4, -0x18(s0)
80200f64: 83 27 44 fd  	lw	a5, -0x2c(s0)
80200f68: e3 f6 e7 fa  	bgeu	a5, a4, 0x80200f14 <strncpy+0x2c>
80200f6c: 6f 00 80 00  	j	0x80200f74 <strncpy+0x8c>
80200f70: 13 00 00 00  	nop
80200f74: 03 27 c4 fd  	lw	a4, -0x24(s0)
80200f78: 83 27 84 fe  	lw	a5, -0x18(s0)
80200f7c: b3 07 f7 00  	add	a5, a4, a5
80200f80: 23 80 07 00  	sb	zero, 0x0(a5)
80200f84: 83 27 c4 fe  	lw	a5, -0x14(s0)
80200f88: 13 85 07 00  	mv	a0, a5
80200f8c: 03 24 c1 02  	lw	s0, 0x2c(sp)
80200f90: 13 01 01 03  	addi	sp, sp, 0x30
80200f94: 67 80 00 00  	ret

80200f98 <strncmp>:
80200f98: 13 01 01 fd  	addi	sp, sp, -0x30
80200f9c: 23 26 81 02  	sw	s0, 0x2c(sp)
80200fa0: 13 04 01 03  	addi	s0, sp, 0x30
80200fa4: 23 2e a4 fc  	sw	a0, -0x24(s0)
80200fa8: 23 2c b4 fc  	sw	a1, -0x28(s0)
80200fac: 23 2a c4 fc  	sw	a2, -0x2c(s0)
80200fb0: 23 26 04 fe  	sw	zero, -0x14(s0)
80200fb4: 6f 00 c0 03  	j	0x80200ff0 <strncmp+0x58>
80200fb8: 03 27 c4 fd  	lw	a4, -0x24(s0)
80200fbc: 83 27 c4 fe  	lw	a5, -0x14(s0)
80200fc0: b3 07 f7 00  	add	a5, a4, a5
80200fc4: 03 c7 07 00  	lbu	a4, 0x0(a5)
80200fc8: 83 26 84 fd  	lw	a3, -0x28(s0)
80200fcc: 83 27 c4 fe  	lw	a5, -0x14(s0)
80200fd0: b3 87 f6 00  	add	a5, a3, a5
80200fd4: 83 c7 07 00  	lbu	a5, 0x0(a5)
80200fd8: 63 06 f7 00  	beq	a4, a5, 0x80200fe4 <strncmp+0x4c>
80200fdc: 93 07 00 00  	li	a5, 0x0
80200fe0: 6f 00 00 02  	j	0x80201000 <strncmp+0x68>
80200fe4: 83 27 c4 fe  	lw	a5, -0x14(s0)
80200fe8: 93 87 17 00  	addi	a5, a5, 0x1
80200fec: 23 26 f4 fe  	sw	a5, -0x14(s0)
80200ff0: 03 27 c4 fe  	lw	a4, -0x14(s0)
80200ff4: 83 27 44 fd  	lw	a5, -0x2c(s0)
80200ff8: e3 60 f7 fc  	bltu	a4, a5, 0x80200fb8 <strncmp+0x20>
80200ffc: 93 07 10 00  	li	a5, 0x1
80201000: 13 85 07 00  	mv	a0, a5
80201004: 03 24 c1 02  	lw	s0, 0x2c(sp)
80201008: 13 01 01 03  	addi	sp, sp, 0x30
8020100c: 67 80 00 00  	ret

80201010 <is_command>:
80201010: 13 01 01 fd  	addi	sp, sp, -0x30
80201014: 23 26 11 02  	sw	ra, 0x2c(sp)
80201018: 23 24 81 02  	sw	s0, 0x28(sp)
8020101c: 13 04 01 03  	addi	s0, sp, 0x30
80201020: 23 2e a4 fc  	sw	a0, -0x24(s0)
80201024: 23 2c b4 fc  	sw	a1, -0x28(s0)
80201028: 03 25 84 fd  	lw	a0, -0x28(s0)
8020102c: ef f0 9f de  	jal	0x80200e14 <strlen>
80201030: 23 26 a4 fe  	sw	a0, -0x14(s0)
80201034: 83 27 c4 fe  	lw	a5, -0x14(s0)
80201038: 63 d6 07 00  	bgez	a5, 0x80201044 <is_command+0x34>
8020103c: 93 07 00 00  	li	a5, 0x0
80201040: 6f 00 40 07  	j	0x802010b4 <is_command+0xa4>
80201044: 83 27 c4 fe  	lw	a5, -0x14(s0)
80201048: 13 86 07 00  	mv	a2, a5
8020104c: 83 25 84 fd  	lw	a1, -0x28(s0)
80201050: 03 25 c4 fd  	lw	a0, -0x24(s0)
80201054: ef f0 5f f4  	jal	0x80200f98 <strncmp>
80201058: 93 07 05 00  	mv	a5, a0
8020105c: 63 8a 07 04  	beqz	a5, 0x802010b0 <is_command+0xa0>
80201060: 83 27 c4 fe  	lw	a5, -0x14(s0)
80201064: 93 87 f7 ff  	addi	a5, a5, -0x1
80201068: 03 27 c4 fd  	lw	a4, -0x24(s0)
8020106c: b3 07 f7 00  	add	a5, a4, a5
80201070: 93 05 00 02  	li	a1, 0x20
80201074: 13 85 07 00  	mv	a0, a5
80201078: ef f0 df df  	jal	0x80200e74 <next_char_is>
8020107c: 93 07 05 00  	mv	a5, a0
80201080: 63 94 07 02  	bnez	a5, 0x802010a8 <is_command+0x98>
80201084: 83 27 c4 fe  	lw	a5, -0x14(s0)
80201088: 93 87 f7 ff  	addi	a5, a5, -0x1
8020108c: 03 27 c4 fd  	lw	a4, -0x24(s0)
80201090: b3 07 f7 00  	add	a5, a4, a5
80201094: 93 05 00 00  	li	a1, 0x0
80201098: 13 85 07 00  	mv	a0, a5
8020109c: ef f0 9f dd  	jal	0x80200e74 <next_char_is>
802010a0: 93 07 05 00  	mv	a5, a0
802010a4: 63 86 07 00  	beqz	a5, 0x802010b0 <is_command+0xa0>
802010a8: 93 07 10 00  	li	a5, 0x1
802010ac: 6f 00 80 00  	j	0x802010b4 <is_command+0xa4>
802010b0: 93 07 00 00  	li	a5, 0x0
802010b4: 13 85 07 00  	mv	a0, a5
802010b8: 83 20 c1 02  	lw	ra, 0x2c(sp)
802010bc: 03 24 81 02  	lw	s0, 0x28(sp)
802010c0: 13 01 01 03  	addi	sp, sp, 0x30
802010c4: 67 80 00 00  	ret

802010c8 <load_context>:
802010c8: 03 21 85 00  	lw	sp, 0x8(a0)
802010cc: 83 20 01 00  	lw	ra, 0x0(sp)
802010d0: 03 24 41 00  	lw	s0, 0x4(sp)
802010d4: 83 24 81 00  	lw	s1, 0x8(sp)
802010d8: 03 29 c1 00  	lw	s2, 0xc(sp)
802010dc: 83 29 01 01  	lw	s3, 0x10(sp)
802010e0: 03 2a 41 01  	lw	s4, 0x14(sp)
802010e4: 83 2a 81 01  	lw	s5, 0x18(sp)
802010e8: 03 2b c1 01  	lw	s6, 0x1c(sp)
802010ec: 83 2b 01 02  	lw	s7, 0x20(sp)
802010f0: 03 2c 41 02  	lw	s8, 0x24(sp)
802010f4: 83 2c 81 02  	lw	s9, 0x28(sp)
802010f8: 03 2d c1 02  	lw	s10, 0x2c(sp)
802010fc: 83 2d 01 03  	lw	s11, 0x30(sp)
80201100: 13 01 01 04  	addi	sp, sp, 0x40
80201104: 67 80 00 00  	ret

80201108 <switch_context>:
80201108: 13 01 01 fc  	addi	sp, sp, -0x40
8020110c: 23 20 11 00  	sw	ra, 0x0(sp)
80201110: 23 22 81 00  	sw	s0, 0x4(sp)
80201114: 23 24 91 00  	sw	s1, 0x8(sp)
80201118: 23 26 21 01  	sw	s2, 0xc(sp)
8020111c: 23 28 31 01  	sw	s3, 0x10(sp)
80201120: 23 2a 41 01  	sw	s4, 0x14(sp)
80201124: 23 2c 51 01  	sw	s5, 0x18(sp)
80201128: 23 2e 61 01  	sw	s6, 0x1c(sp)
8020112c: 23 20 71 03  	sw	s7, 0x20(sp)
80201130: 23 22 81 03  	sw	s8, 0x24(sp)
80201134: 23 24 91 03  	sw	s9, 0x28(sp)
80201138: 23 26 a1 03  	sw	s10, 0x2c(sp)
8020113c: 23 28 b1 03  	sw	s11, 0x30(sp)
80201140: 23 24 25 00  	sw	sp, 0x8(a0)
80201144: 13 85 05 00  	mv	a0, a1
80201148: 6f f0 1f f8  	j	0x802010c8 <load_context>

8020114c <read_csr_sepc>:
8020114c: 13 01 01 fe  	addi	sp, sp, -0x20
80201150: 23 2e 81 00  	sw	s0, 0x1c(sp)
80201154: 13 04 01 02  	addi	s0, sp, 0x20
80201158: 23 26 04 fe  	sw	zero, -0x14(s0)
8020115c: f3 27 10 14  	csrr	a5, sepc
80201160: 23 26 f4 fe  	sw	a5, -0x14(s0)
80201164: 83 27 c4 fe  	lw	a5, -0x14(s0)
80201168: 13 85 07 00  	mv	a0, a5
8020116c: 03 24 c1 01  	lw	s0, 0x1c(sp)
80201170: 13 01 01 02  	addi	sp, sp, 0x20
80201174: 67 80 00 00  	ret

80201178 <write_csr_sepc>:
80201178: 13 01 01 fe  	addi	sp, sp, -0x20
8020117c: 23 2e 81 00  	sw	s0, 0x1c(sp)
80201180: 13 04 01 02  	addi	s0, sp, 0x20
80201184: 23 26 a4 fe  	sw	a0, -0x14(s0)
80201188: 83 27 c4 fe  	lw	a5, -0x14(s0)
8020118c: 73 90 17 14  	csrw	sepc, a5
80201190: 13 00 00 00  	nop
80201194: 03 24 c1 01  	lw	s0, 0x1c(sp)
80201198: 13 01 01 02  	addi	sp, sp, 0x20
8020119c: 67 80 00 00  	ret

802011a0 <make_mask_portion>:
802011a0: 13 01 01 fd  	addi	sp, sp, -0x30
802011a4: 23 26 81 02  	sw	s0, 0x2c(sp)
802011a8: 13 04 01 03  	addi	s0, sp, 0x30
802011ac: 93 07 05 00  	mv	a5, a0
802011b0: a3 0f f4 fc  	sb	a5, -0x21(s0)
802011b4: a3 07 04 fe  	sb	zero, -0x11(s0)
802011b8: 6f 00 80 02  	j	0x802011e0 <make_mask_portion+0x40>
802011bc: 83 47 f4 fe  	lbu	a5, -0x11(s0)
802011c0: 93 d7 17 00  	srli	a5, a5, 0x1
802011c4: a3 07 f4 fe  	sb	a5, -0x11(s0)
802011c8: 83 47 f4 fe  	lbu	a5, -0x11(s0)
802011cc: 93 e7 07 f8  	ori	a5, a5, -0x80
802011d0: a3 07 f4 fe  	sb	a5, -0x11(s0)
802011d4: 83 47 f4 fd  	lbu	a5, -0x21(s0)
802011d8: 93 87 f7 ff  	addi	a5, a5, -0x1
802011dc: a3 0f f4 fc  	sb	a5, -0x21(s0)
802011e0: 83 47 f4 fd  	lbu	a5, -0x21(s0)
802011e4: e3 9c 07 fc  	bnez	a5, 0x802011bc <make_mask_portion+0x1c>
802011e8: 83 47 f4 fe  	lbu	a5, -0x11(s0)
802011ec: 13 85 07 00  	mv	a0, a5
802011f0: 03 24 c1 02  	lw	s0, 0x2c(sp)
802011f4: 13 01 01 03  	addi	sp, sp, 0x30
802011f8: 67 80 00 00  	ret

802011fc <get_new_id>:
802011fc: 13 01 01 fd  	addi	sp, sp, -0x30
80201200: 23 26 81 02  	sw	s0, 0x2c(sp)
80201204: 13 04 01 03  	addi	s0, sp, 0x30
80201208: 93 07 05 00  	mv	a5, a0
8020120c: a3 0f f4 fc  	sb	a5, -0x21(s0)
80201210: 83 47 f4 fd  	lbu	a5, -0x21(s0)
80201214: 93 b7 17 00  	seqz	a5, a5
80201218: 93 f7 f7 0f  	andi	a5, a5, 0xff
8020121c: 13 87 07 00  	mv	a4, a5
80201220: 83 47 f4 fd  	lbu	a5, -0x21(s0)
80201224: b3 07 f7 00  	add	a5, a4, a5
80201228: a3 0f f4 fc  	sb	a5, -0x21(s0)
8020122c: a3 07 04 fe  	sb	zero, -0x11(s0)
80201230: 93 07 10 00  	li	a5, 0x1
80201234: 23 07 f4 fe  	sb	a5, -0x12(s0)
80201238: a3 07 04 fe  	sb	zero, -0x11(s0)
8020123c: a3 06 04 fe  	sb	zero, -0x13(s0)
80201240: 6f 00 40 07  	j	0x802012b4 <get_new_id+0xb8>
80201244: 83 47 d4 fe  	lbu	a5, -0x13(s0)
80201248: 37 27 aa 80  	lui	a4, 0x80aa2
8020124c: 13 07 07 a8  	addi	a4, a4, -0x580
80201250: 93 97 27 00  	slli	a5, a5, 0x2
80201254: b3 07 f7 00  	add	a5, a4, a5
80201258: 03 a7 07 00  	lw	a4, 0x0(a5)
8020125c: b7 47 0f 00  	lui	a5, 0xf4
80201260: b3 07 f7 00  	add	a5, a4, a5
80201264: 03 a7 87 34  	lw	a4, 0x348(a5)
80201268: 93 07 30 00  	li	a5, 0x3
8020126c: 63 0e f7 02  	beq	a4, a5, 0x802012a8 <get_new_id+0xac>
80201270: 83 47 d4 fe  	lbu	a5, -0x13(s0)
80201274: 37 27 aa 80  	lui	a4, 0x80aa2
80201278: 13 07 07 a8  	addi	a4, a4, -0x580
8020127c: 93 97 27 00  	slli	a5, a5, 0x2
80201280: b3 07 f7 00  	add	a5, a4, a5
80201284: 03 a7 07 00  	lw	a4, 0x0(a5)
80201288: b7 47 0f 00  	lui	a5, 0xf4
8020128c: b3 07 f7 00  	add	a5, a4, a5
80201290: 83 c7 47 34  	lbu	a5, 0x344(a5)
80201294: 03 47 f4 fd  	lbu	a4, -0x21(s0)
80201298: 63 18 f7 00  	bne	a4, a5, 0x802012a8 <get_new_id+0xac>
8020129c: 93 07 10 00  	li	a5, 0x1
802012a0: a3 07 f4 fe  	sb	a5, -0x11(s0)
802012a4: 6f 00 c0 01  	j	0x802012c0 <get_new_id+0xc4>
802012a8: 83 47 d4 fe  	lbu	a5, -0x13(s0)
802012ac: 93 87 17 00  	addi	a5, a5, 0x1
802012b0: a3 06 f4 fe  	sb	a5, -0x13(s0)
802012b4: 03 47 d4 fe  	lbu	a4, -0x13(s0)
802012b8: 93 07 70 00  	li	a5, 0x7
802012bc: e3 f4 e7 f8  	bgeu	a5, a4, 0x80201244 <get_new_id+0x48>
802012c0: 83 47 f4 fe  	lbu	a5, -0x11(s0)
802012c4: 63 96 07 00  	bnez	a5, 0x802012d0 <get_new_id+0xd4>
802012c8: 83 47 e4 fe  	lbu	a5, -0x12(s0)
802012cc: 6f 00 40 01  	j	0x802012e0 <get_new_id+0xe4>
802012d0: 83 47 e4 fe  	lbu	a5, -0x12(s0)
802012d4: 93 87 17 00  	addi	a5, a5, 0x1
802012d8: 23 07 f4 fe  	sb	a5, -0x12(s0)
802012dc: 6f f0 df f5  	j	0x80201238 <get_new_id+0x3c>
802012e0: 13 85 07 00  	mv	a0, a5
802012e4: 03 24 c1 02  	lw	s0, 0x2c(sp)
802012e8: 13 01 01 03  	addi	sp, sp, 0x30
802012ec: 67 80 00 00  	ret

802012f0 <start_process>:
802012f0: 13 01 01 ff  	addi	sp, sp, -0x10
802012f4: 23 26 11 00  	sw	ra, 0xc(sp)
802012f8: 23 24 81 00  	sw	s0, 0x8(sp)
802012fc: 13 04 01 01  	addi	s0, sp, 0x10
80201300: b7 27 da 80  	lui	a5, 0x80da2
80201304: 83 c7 b7 cb  	lbu	a5, -0x345(a5)
80201308: 93 86 07 00  	mv	a3, a5
8020130c: b7 27 aa 80  	lui	a5, 0x80aa2
80201310: 13 87 07 a8  	addi	a4, a5, -0x580
80201314: 93 97 26 00  	slli	a5, a3, 0x2
80201318: b3 07 f7 00  	add	a5, a4, a5
8020131c: 83 a7 07 00  	lw	a5, 0x0(a5)
80201320: 83 a7 07 08  	lw	a5, 0x80(a5)
80201324: 13 85 07 00  	mv	a0, a5
80201328: ef f0 1f e5  	jal	0x80201178 <write_csr_sepc>
8020132c: 73 00 20 10  	sret
80201330: 13 00 00 00  	nop
80201334: 83 20 c1 00  	lw	ra, 0xc(sp)
80201338: 03 24 81 00  	lw	s0, 0x8(sp)
8020133c: 13 01 01 01  	addi	sp, sp, 0x10
80201340: 67 80 00 00  	ret

80201344 <change_cp_on_kill>:
80201344: 13 01 01 fe  	addi	sp, sp, -0x20
80201348: 23 2e 81 00  	sw	s0, 0x1c(sp)
8020134c: 13 04 01 02  	addi	s0, sp, 0x20
80201350: 93 07 05 00  	mv	a5, a0
80201354: a3 07 f4 fe  	sb	a5, -0x11(s0)
80201358: b7 27 da 80  	lui	a5, 0x80da2
8020135c: 83 c7 b7 cb  	lbu	a5, -0x345(a5)
80201360: 03 47 f4 fe  	lbu	a4, -0x11(s0)
80201364: 63 70 f7 02  	bgeu	a4, a5, 0x80201384 <change_cp_on_kill+0x40>
80201368: b7 27 da 80  	lui	a5, 0x80da2
8020136c: 83 c7 b7 cb  	lbu	a5, -0x345(a5)
80201370: 93 87 f7 ff  	addi	a5, a5, -0x1
80201374: 13 f7 f7 0f  	andi	a4, a5, 0xff
80201378: b7 27 da 80  	lui	a5, 0x80da2
8020137c: a3 8d e7 ca  	sb	a4, -0x345(a5)
80201380: 6f 00 00 04  	j	0x802013c0 <change_cp_on_kill+0x7c>
80201384: b7 27 da 80  	lui	a5, 0x80da2
80201388: 83 c7 b7 cb  	lbu	a5, -0x345(a5)
8020138c: 03 47 f4 fe  	lbu	a4, -0x11(s0)
80201390: 63 18 f7 02  	bne	a4, a5, 0x802013c0 <change_cp_on_kill+0x7c>
80201394: b7 27 da 80  	lui	a5, 0x80da2
80201398: 83 c7 b7 cb  	lbu	a5, -0x345(a5)
8020139c: 93 86 07 00  	mv	a3, a5
802013a0: b7 27 aa 80  	lui	a5, 0x80aa2
802013a4: 13 87 07 a8  	addi	a4, a5, -0x580
802013a8: 93 97 26 00  	slli	a5, a3, 0x2
802013ac: b3 07 f7 00  	add	a5, a4, a5
802013b0: 83 a7 07 00  	lw	a5, 0x0(a5)
802013b4: 63 96 07 00  	bnez	a5, 0x802013c0 <change_cp_on_kill+0x7c>
802013b8: b7 27 da 80  	lui	a5, 0x80da2
802013bc: a3 8d 07 ca  	sb	zero, -0x345(a5)
802013c0: 13 00 00 00  	nop
802013c4: 03 24 c1 01  	lw	s0, 0x1c(sp)
802013c8: 13 01 01 02  	addi	sp, sp, 0x20
802013cc: 67 80 00 00  	ret

802013d0 <initialize_processes>:
802013d0: 13 01 01 fe  	addi	sp, sp, -0x20
802013d4: 23 2e 11 00  	sw	ra, 0x1c(sp)
802013d8: 23 2c 81 00  	sw	s0, 0x18(sp)
802013dc: 13 04 01 02  	addi	s0, sp, 0x20
802013e0: a3 07 04 fe  	sb	zero, -0x11(s0)
802013e4: 6f 00 40 1d  	j	0x802015b8 <initialize_processes+0x1e8>
802013e8: 83 47 f4 fe  	lbu	a5, -0x11(s0)
802013ec: 37 27 aa 80  	lui	a4, 0x80aa2
802013f0: 13 07 07 a8  	addi	a4, a4, -0x580
802013f4: 93 97 27 00  	slli	a5, a5, 0x2
802013f8: b3 07 f7 00  	add	a5, a4, a5
802013fc: 23 a0 07 00  	sw	zero, 0x0(a5)
80201400: 83 46 f4 fe  	lbu	a3, -0x11(s0)
80201404: b7 07 30 80  	lui	a5, 0x80300
80201408: 13 87 07 02  	addi	a4, a5, 0x20
8020140c: b7 47 0f 00  	lui	a5, 0xf4
80201410: 93 87 c7 34  	addi	a5, a5, 0x34c
80201414: b3 87 f6 02  	mul	a5, a3, a5
80201418: b3 07 f7 00  	add	a5, a4, a5
8020141c: 37 47 0f 00  	lui	a4, 0xf4
80201420: b3 07 f7 00  	add	a5, a4, a5
80201424: 23 82 07 34  	sb	zero, 0x344(a5)
80201428: 83 46 f4 fe  	lbu	a3, -0x11(s0)
8020142c: b7 07 30 80  	lui	a5, 0x80300
80201430: 13 87 07 02  	addi	a4, a5, 0x20
80201434: b7 47 0f 00  	lui	a5, 0xf4
80201438: 93 87 c7 34  	addi	a5, a5, 0x34c
8020143c: b3 87 f6 02  	mul	a5, a3, a5
80201440: b3 07 f7 00  	add	a5, a4, a5
80201444: 37 47 0f 00  	lui	a4, 0xf4
80201448: b3 07 f7 00  	add	a5, a4, a5
8020144c: a3 82 07 34  	sb	zero, 0x345(a5)
80201450: 83 46 f4 fe  	lbu	a3, -0x11(s0)
80201454: b7 07 30 80  	lui	a5, 0x80300
80201458: 13 87 07 02  	addi	a4, a5, 0x20
8020145c: b7 47 0f 00  	lui	a5, 0xf4
80201460: 93 87 c7 34  	addi	a5, a5, 0x34c
80201464: b3 87 f6 02  	mul	a5, a3, a5
80201468: b3 07 f7 00  	add	a5, a4, a5
8020146c: 37 47 0f 00  	lui	a4, 0xf4
80201470: b3 07 f7 00  	add	a5, a4, a5
80201474: 13 07 30 00  	li	a4, 0x3
80201478: 23 a4 e7 34  	sw	a4, 0x348(a5)
8020147c: 03 47 f4 fe  	lbu	a4, -0x11(s0)
80201480: b7 47 0f 00  	lui	a5, 0xf4
80201484: 93 87 c7 34  	addi	a5, a5, 0x34c
80201488: 33 07 f7 02  	mul	a4, a4, a5
8020148c: b7 47 0f 00  	lui	a5, 0xf4
80201490: 93 87 07 2c  	addi	a5, a5, 0x2c0
80201494: 33 07 f7 00  	add	a4, a4, a5
80201498: b7 07 30 80  	lui	a5, 0x80300
8020149c: 93 87 07 02  	addi	a5, a5, 0x20
802014a0: b3 07 f7 00  	add	a5, a4, a5
802014a4: 13 87 47 00  	addi	a4, a5, 0x4
802014a8: 13 06 10 00  	li	a2, 0x1
802014ac: b7 37 20 80  	lui	a5, 0x80203
802014b0: 93 85 47 e1  	addi	a1, a5, -0x1ec
802014b4: 13 05 07 00  	mv	a0, a4
802014b8: ef f0 1f a3  	jal	0x80200ee8 <strncpy>
802014bc: 23 07 04 fe  	sb	zero, -0x12(s0)
802014c0: 6f 00 c0 03  	j	0x802014fc <initialize_processes+0x12c>
802014c4: 03 46 f4 fe  	lbu	a2, -0x11(s0)
802014c8: 83 47 e4 fe  	lbu	a5, -0x12(s0)
802014cc: 37 07 30 80  	lui	a4, 0x80300
802014d0: 13 07 07 02  	addi	a4, a4, 0x20
802014d4: b7 d6 03 00  	lui	a3, 0x3d
802014d8: 93 86 36 0d  	addi	a3, a3, 0xd3
802014dc: b3 06 d6 02  	mul	a3, a2, a3
802014e0: b3 87 f6 00  	add	a5, a3, a5
802014e4: 93 97 27 00  	slli	a5, a5, 0x2
802014e8: b3 07 f7 00  	add	a5, a4, a5
802014ec: 23 a0 07 00  	sw	zero, 0x0(a5)
802014f0: 83 47 e4 fe  	lbu	a5, -0x12(s0)
802014f4: 93 87 17 00  	addi	a5, a5, 0x1
802014f8: 23 07 f4 fe  	sb	a5, -0x12(s0)
802014fc: 03 47 e4 fe  	lbu	a4, -0x12(s0)
80201500: 93 07 f0 01  	li	a5, 0x1f
80201504: e3 f0 e7 fc  	bgeu	a5, a4, 0x802014c4 <initialize_processes+0xf4>
80201508: 03 47 f4 fe  	lbu	a4, -0x11(s0)
8020150c: b7 47 0f 00  	lui	a5, 0xf4
80201510: 93 87 c7 34  	addi	a5, a5, 0x34c
80201514: 33 07 f7 02  	mul	a4, a4, a5
80201518: b7 47 0f 00  	lui	a5, 0xf4
8020151c: 93 87 07 2c  	addi	a5, a5, 0x2c0
80201520: 33 07 f7 00  	add	a4, a4, a5
80201524: b7 07 30 80  	lui	a5, 0x80300
80201528: 93 87 07 02  	addi	a5, a5, 0x20
8020152c: b3 07 f7 00  	add	a5, a4, a5
80201530: 93 87 47 00  	addi	a5, a5, 0x4
80201534: 83 46 f4 fe  	lbu	a3, -0x11(s0)
80201538: 13 86 07 00  	mv	a2, a5
8020153c: b7 07 30 80  	lui	a5, 0x80300
80201540: 13 87 07 02  	addi	a4, a5, 0x20
80201544: b7 47 0f 00  	lui	a5, 0xf4
80201548: 93 87 c7 34  	addi	a5, a5, 0x34c
8020154c: b3 87 f6 02  	mul	a5, a3, a5
80201550: b3 07 f7 00  	add	a5, a4, a5
80201554: 23 a4 c7 00  	sw	a2, 0x8(a5)
80201558: 23 24 04 fe  	sw	zero, -0x18(s0)
8020155c: 6f 00 00 04  	j	0x8020159c <initialize_processes+0x1cc>
80201560: 83 46 f4 fe  	lbu	a3, -0x11(s0)
80201564: b7 07 30 80  	lui	a5, 0x80300
80201568: 13 87 07 02  	addi	a4, a5, 0x20
8020156c: b7 d7 03 00  	lui	a5, 0x3d
80201570: 93 87 37 0d  	addi	a5, a5, 0xd3
80201574: b3 86 f6 02  	mul	a3, a3, a5
80201578: 83 27 84 fe  	lw	a5, -0x18(s0)
8020157c: b3 87 f6 00  	add	a5, a3, a5
80201580: 93 87 07 02  	addi	a5, a5, 0x20
80201584: 93 97 27 00  	slli	a5, a5, 0x2
80201588: b3 07 f7 00  	add	a5, a4, a5
8020158c: 23 a2 07 00  	sw	zero, 0x4(a5)
80201590: 83 27 84 fe  	lw	a5, -0x18(s0)
80201594: 93 87 17 00  	addi	a5, a5, 0x1
80201598: 23 24 f4 fe  	sw	a5, -0x18(s0)
8020159c: 03 27 84 fe  	lw	a4, -0x18(s0)
802015a0: b7 d7 03 00  	lui	a5, 0x3d
802015a4: 93 87 f7 08  	addi	a5, a5, 0x8f
802015a8: e3 fc e7 fa  	bgeu	a5, a4, 0x80201560 <initialize_processes+0x190>
802015ac: 83 47 f4 fe  	lbu	a5, -0x11(s0)
802015b0: 93 87 17 00  	addi	a5, a5, 0x1
802015b4: a3 07 f4 fe  	sb	a5, -0x11(s0)
802015b8: 03 47 f4 fe  	lbu	a4, -0x11(s0)
802015bc: 93 07 70 00  	li	a5, 0x7
802015c0: e3 f4 e7 e2  	bgeu	a5, a4, 0x802013e8 <initialize_processes+0x18>
802015c4: 13 00 00 00  	nop
802015c8: 13 00 00 00  	nop
802015cc: 83 20 c1 01  	lw	ra, 0x1c(sp)
802015d0: 03 24 81 01  	lw	s0, 0x18(sp)
802015d4: 13 01 01 02  	addi	sp, sp, 0x20
802015d8: 67 80 00 00  	ret

802015dc <process_done>:
802015dc: 13 01 01 ff  	addi	sp, sp, -0x10
802015e0: 23 26 81 00  	sw	s0, 0xc(sp)
802015e4: 13 04 01 01  	addi	s0, sp, 0x10
802015e8: b7 27 da 80  	lui	a5, 0x80da2
802015ec: 13 07 10 00  	li	a4, 0x1
802015f0: 23 8c e7 ca  	sb	a4, -0x348(a5)
802015f4: 73 00 50 10  	wfi
802015f8: 13 00 00 00  	nop
802015fc: 03 24 c1 00  	lw	s0, 0xc(sp)
80201600: 13 01 01 01  	addi	sp, sp, 0x10
80201604: 67 80 00 00  	ret

80201608 <add_process>:
80201608: 13 01 01 fd  	addi	sp, sp, -0x30
8020160c: 23 26 11 02  	sw	ra, 0x2c(sp)
80201610: 23 24 81 02  	sw	s0, 0x28(sp)
80201614: 13 04 01 03  	addi	s0, sp, 0x30
80201618: 93 07 05 00  	mv	a5, a0
8020161c: 13 87 05 00  	mv	a4, a1
80201620: 23 2c c4 fc  	sw	a2, -0x28(s0)
80201624: 23 2a d4 fc  	sw	a3, -0x2c(s0)
80201628: a3 0f f4 fc  	sb	a5, -0x21(s0)
8020162c: 93 07 07 00  	mv	a5, a4
80201630: 23 0f f4 fc  	sb	a5, -0x22(s0)
80201634: b7 27 da 80  	lui	a5, 0x80da2
80201638: 03 c7 a7 cb  	lbu	a4, -0x346(a5)
8020163c: 93 07 f0 0f  	li	a5, 0xff
80201640: 63 16 f7 00  	bne	a4, a5, 0x8020164c <add_process+0x44>
80201644: 93 07 20 00  	li	a5, 0x2
80201648: 6f 00 40 28  	j	0x802018cc <add_process+0x2c4>
8020164c: a3 07 04 fe  	sb	zero, -0x11(s0)
80201650: 23 07 04 fe  	sb	zero, -0x12(s0)
80201654: 6f 00 00 09  	j	0x802016e4 <add_process+0xdc>
80201658: 83 47 e4 fe  	lbu	a5, -0x12(s0)
8020165c: 37 27 aa 80  	lui	a4, 0x80aa2
80201660: 13 07 07 a8  	addi	a4, a4, -0x580
80201664: 93 97 27 00  	slli	a5, a5, 0x2
80201668: b3 07 f7 00  	add	a5, a4, a5
8020166c: 83 a7 07 00  	lw	a5, 0x0(a5)
80201670: 63 82 07 08  	beqz	a5, 0x802016f4 <add_process+0xec>
80201674: 83 47 e4 fe  	lbu	a5, -0x12(s0)
80201678: 37 27 aa 80  	lui	a4, 0x80aa2
8020167c: 13 07 07 a8  	addi	a4, a4, -0x580
80201680: 93 97 27 00  	slli	a5, a5, 0x2
80201684: b3 07 f7 00  	add	a5, a4, a5
80201688: 03 a7 07 00  	lw	a4, 0x0(a5)
8020168c: b7 47 0f 00  	lui	a5, 0xf4
80201690: b3 07 f7 00  	add	a5, a4, a5
80201694: 03 a7 87 34  	lw	a4, 0x348(a5)
80201698: 93 07 30 00  	li	a5, 0x3
8020169c: 63 0e f7 02  	beq	a4, a5, 0x802016d8 <add_process+0xd0>
802016a0: 83 47 e4 fe  	lbu	a5, -0x12(s0)
802016a4: 37 27 aa 80  	lui	a4, 0x80aa2
802016a8: 13 07 07 a8  	addi	a4, a4, -0x580
802016ac: 93 97 27 00  	slli	a5, a5, 0x2
802016b0: b3 07 f7 00  	add	a5, a4, a5
802016b4: 03 a7 07 00  	lw	a4, 0x0(a5)
802016b8: b7 47 0f 00  	lui	a5, 0xf4
802016bc: b3 07 f7 00  	add	a5, a4, a5
802016c0: 83 c7 47 34  	lbu	a5, 0x344(a5)
802016c4: 03 47 f4 fd  	lbu	a4, -0x21(s0)
802016c8: 63 18 f7 00  	bne	a4, a5, 0x802016d8 <add_process+0xd0>
802016cc: 93 07 30 00  	li	a5, 0x3
802016d0: a3 07 f4 fe  	sb	a5, -0x11(s0)
802016d4: 6f 00 40 02  	j	0x802016f8 <add_process+0xf0>
802016d8: 83 47 e4 fe  	lbu	a5, -0x12(s0)
802016dc: 93 87 17 00  	addi	a5, a5, 0x1
802016e0: 23 07 f4 fe  	sb	a5, -0x12(s0)
802016e4: 03 47 e4 fe  	lbu	a4, -0x12(s0)
802016e8: 93 07 70 00  	li	a5, 0x7
802016ec: e3 f6 e7 f6  	bgeu	a5, a4, 0x80201658 <add_process+0x50>
802016f0: 6f 00 80 00  	j	0x802016f8 <add_process+0xf0>
802016f4: 13 00 00 00  	nop
802016f8: 03 47 f4 fe  	lbu	a4, -0x11(s0)
802016fc: 93 07 30 00  	li	a5, 0x3
80201700: 63 1c f7 00  	bne	a4, a5, 0x80201718 <add_process+0x110>
80201704: 83 47 f4 fd  	lbu	a5, -0x21(s0)
80201708: 13 85 07 00  	mv	a0, a5
8020170c: ef f0 1f af  	jal	0x802011fc <get_new_id>
80201710: 93 07 05 00  	mv	a5, a0
80201714: a3 0f f4 fc  	sb	a5, -0x21(s0)
80201718: a3 06 04 fe  	sb	zero, -0x13(s0)
8020171c: 93 07 00 f8  	li	a5, -0x80
80201720: 23 06 f4 fe  	sb	a5, -0x14(s0)
80201724: 6f 00 40 05  	j	0x80201778 <add_process+0x170>
80201728: b7 27 da 80  	lui	a5, 0x80da2
8020172c: 83 c7 a7 cb  	lbu	a5, -0x346(a5)
80201730: 03 47 c4 fe  	lbu	a4, -0x14(s0)
80201734: b3 f7 e7 00  	and	a5, a5, a4
80201738: 93 f7 f7 0f  	andi	a5, a5, 0xff
8020173c: 63 92 07 02  	bnez	a5, 0x80201760 <add_process+0x158>
80201740: b7 27 da 80  	lui	a5, 0x80da2
80201744: 83 c7 a7 cb  	lbu	a5, -0x346(a5)
80201748: 03 47 c4 fe  	lbu	a4, -0x14(s0)
8020174c: b3 e7 e7 00  	or	a5, a5, a4
80201750: 13 f7 f7 0f  	andi	a4, a5, 0xff
80201754: b7 27 da 80  	lui	a5, 0x80da2
80201758: 23 8d e7 ca  	sb	a4, -0x346(a5)
8020175c: 6f 00 40 02  	j	0x80201780 <add_process+0x178>
80201760: 83 47 c4 fe  	lbu	a5, -0x14(s0)
80201764: 93 d7 17 00  	srli	a5, a5, 0x1
80201768: 23 06 f4 fe  	sb	a5, -0x14(s0)
8020176c: 83 47 d4 fe  	lbu	a5, -0x13(s0)
80201770: 93 87 17 00  	addi	a5, a5, 0x1
80201774: a3 06 f4 fe  	sb	a5, -0x13(s0)
80201778: 83 47 c4 fe  	lbu	a5, -0x14(s0)
8020177c: e3 96 07 fa  	bnez	a5, 0x80201728 <add_process+0x120>
80201780: 23 24 04 fe  	sw	zero, -0x18(s0)
80201784: a3 03 04 fe  	sb	zero, -0x19(s0)
80201788: 6f 00 40 06  	j	0x802017ec <add_process+0x1e4>
8020178c: 83 46 74 fe  	lbu	a3, -0x19(s0)
80201790: b7 07 30 80  	lui	a5, 0x80300
80201794: 13 87 07 02  	addi	a4, a5, 0x20
80201798: b7 47 0f 00  	lui	a5, 0xf4
8020179c: 93 87 c7 34  	addi	a5, a5, 0x34c
802017a0: b3 87 f6 02  	mul	a5, a3, a5
802017a4: b3 07 f7 00  	add	a5, a4, a5
802017a8: 37 47 0f 00  	lui	a4, 0xf4
802017ac: b3 07 f7 00  	add	a5, a4, a5
802017b0: 03 a7 87 34  	lw	a4, 0x348(a5)
802017b4: 93 07 30 00  	li	a5, 0x3
802017b8: 63 14 f7 02  	bne	a4, a5, 0x802017e0 <add_process+0x1d8>
802017bc: 03 47 74 fe  	lbu	a4, -0x19(s0)
802017c0: b7 47 0f 00  	lui	a5, 0xf4
802017c4: 93 87 c7 34  	addi	a5, a5, 0x34c
802017c8: 33 07 f7 02  	mul	a4, a4, a5
802017cc: b7 07 30 80  	lui	a5, 0x80300
802017d0: 93 87 07 02  	addi	a5, a5, 0x20
802017d4: b3 07 f7 00  	add	a5, a4, a5
802017d8: 23 24 f4 fe  	sw	a5, -0x18(s0)
802017dc: 6f 00 c0 01  	j	0x802017f8 <add_process+0x1f0>
802017e0: 83 47 74 fe  	lbu	a5, -0x19(s0)
802017e4: 93 87 17 00  	addi	a5, a5, 0x1
802017e8: a3 03 f4 fe  	sb	a5, -0x19(s0)
802017ec: 03 47 74 fe  	lbu	a4, -0x19(s0)
802017f0: 93 07 70 00  	li	a5, 0x7
802017f4: e3 fc e7 f8  	bgeu	a5, a4, 0x8020178c <add_process+0x184>
802017f8: 83 47 d4 fe  	lbu	a5, -0x13(s0)
802017fc: 37 27 aa 80  	lui	a4, 0x80aa2
80201800: 13 07 07 a8  	addi	a4, a4, -0x580
80201804: 93 97 27 00  	slli	a5, a5, 0x2
80201808: b3 07 f7 00  	add	a5, a4, a5
8020180c: 03 27 84 fe  	lw	a4, -0x18(s0)
80201810: 23 a0 e7 00  	sw	a4, 0x0(a5)
80201814: 03 27 84 fe  	lw	a4, -0x18(s0)
80201818: b7 47 0f 00  	lui	a5, 0xf4
8020181c: b3 07 f7 00  	add	a5, a4, a5
80201820: 23 a4 07 34  	sw	zero, 0x348(a5)
80201824: 03 27 84 fe  	lw	a4, -0x18(s0)
80201828: b7 47 0f 00  	lui	a5, 0xf4
8020182c: b3 07 f7 00  	add	a5, a4, a5
80201830: 03 47 f4 fd  	lbu	a4, -0x21(s0)
80201834: 23 82 e7 34  	sb	a4, 0x344(a5)
80201838: 03 27 84 fe  	lw	a4, -0x18(s0)
8020183c: b7 47 0f 00  	lui	a5, 0xf4
80201840: 93 87 47 2c  	addi	a5, a5, 0x2c4
80201844: b3 07 f7 00  	add	a5, a4, a5
80201848: 13 06 00 08  	li	a2, 0x80
8020184c: 83 25 84 fd  	lw	a1, -0x28(s0)
80201850: 13 85 07 00  	mv	a0, a5
80201854: ef f0 4f e9  	jal	0x80200ee8 <strncpy>
80201858: 03 27 84 fe  	lw	a4, -0x18(s0)
8020185c: b7 47 0f 00  	lui	a5, 0xf4
80201860: b3 07 f7 00  	add	a5, a4, a5
80201864: 03 47 e4 fd  	lbu	a4, -0x22(s0)
80201868: a3 82 e7 34  	sb	a4, 0x345(a5)
8020186c: 83 27 84 fe  	lw	a5, -0x18(s0)
80201870: 03 27 44 fd  	lw	a4, -0x2c(s0)
80201874: 23 a0 e7 08  	sw	a4, 0x80(a5)
80201878: 83 27 84 fe  	lw	a5, -0x18(s0)
8020187c: 13 87 47 08  	addi	a4, a5, 0x84
80201880: 13 06 00 00  	li	a2, 0x0
80201884: b7 d7 03 00  	lui	a5, 0x3d
80201888: 93 85 07 09  	addi	a1, a5, 0x90
8020188c: 13 05 07 00  	mv	a0, a4
80201890: ef f0 cf a7  	jal	0x80200b0c <memset>
80201894: b7 17 20 80  	lui	a5, 0x80201
80201898: 13 87 07 2f  	addi	a4, a5, 0x2f0
8020189c: 83 26 84 fe  	lw	a3, -0x18(s0)
802018a0: b7 47 0f 00  	lui	a5, 0xf4
802018a4: b3 87 f6 00  	add	a5, a3, a5
802018a8: 23 a2 e7 28  	sw	a4, 0x284(a5)
802018ac: 03 27 84 fe  	lw	a4, -0x18(s0)
802018b0: b7 47 0f 00  	lui	a5, 0xf4
802018b4: 93 87 47 28  	addi	a5, a5, 0x284
802018b8: b3 07 f7 00  	add	a5, a4, a5
802018bc: 13 87 07 00  	mv	a4, a5
802018c0: 83 27 84 fe  	lw	a5, -0x18(s0)
802018c4: 23 a4 e7 00  	sw	a4, 0x8(a5)
802018c8: 83 47 f4 fe  	lbu	a5, -0x11(s0)
802018cc: 13 85 07 00  	mv	a0, a5
802018d0: 83 20 c1 02  	lw	ra, 0x2c(sp)
802018d4: 03 24 81 02  	lw	s0, 0x28(sp)
802018d8: 13 01 01 03  	addi	sp, sp, 0x30
802018dc: 67 80 00 00  	ret

802018e0 <schedule>:
802018e0: 13 01 01 fe  	addi	sp, sp, -0x20
802018e4: 23 2e 11 00  	sw	ra, 0x1c(sp)
802018e8: 23 2c 81 00  	sw	s0, 0x18(sp)
802018ec: 13 04 01 02  	addi	s0, sp, 0x20
802018f0: b7 27 da 80  	lui	a5, 0x80da2
802018f4: 83 c7 a7 cb  	lbu	a5, -0x346(a5)
802018f8: 63 9c 07 00  	bnez	a5, 0x80201910 <schedule+0x30>
802018fc: b7 27 da 80  	lui	a5, 0x80da2
80201900: 83 a7 07 cc  	lw	a5, -0x340(a5)
80201904: 13 85 07 00  	mv	a0, a5
80201908: ef f0 1f 87  	jal	0x80201178 <write_csr_sepc>
8020190c: 6f 00 00 1b  	j	0x80201abc <schedule+0x1dc>
80201910: b7 27 da 80  	lui	a5, 0x80da2
80201914: 83 c7 b7 cb  	lbu	a5, -0x345(a5)
80201918: 93 87 17 00  	addi	a5, a5, 0x1
8020191c: a3 07 f4 fe  	sb	a5, -0x11(s0)
80201920: b7 27 da 80  	lui	a5, 0x80da2
80201924: 83 c7 b7 cb  	lbu	a5, -0x345(a5)
80201928: 93 86 07 00  	mv	a3, a5
8020192c: b7 27 aa 80  	lui	a5, 0x80aa2
80201930: 13 87 07 a8  	addi	a4, a5, -0x580
80201934: 93 97 26 00  	slli	a5, a3, 0x2
80201938: b3 07 f7 00  	add	a5, a4, a5
8020193c: 83 a7 07 00  	lw	a5, 0x0(a5)
80201940: 23 24 f4 fe  	sw	a5, -0x18(s0)
80201944: 03 27 84 fe  	lw	a4, -0x18(s0)
80201948: b7 47 0f 00  	lui	a5, 0xf4
8020194c: b3 07 f7 00  	add	a5, a4, a5
80201950: 03 c7 57 34  	lbu	a4, 0x345(a5)
80201954: b7 27 da 80  	lui	a5, 0x80da2
80201958: 83 c7 c7 cb  	lbu	a5, -0x344(a5)
8020195c: 63 e4 e7 12  	bltu	a5, a4, 0x80201a84 <schedule+0x1a4>
80201960: b7 27 da 80  	lui	a5, 0x80da2
80201964: 23 8e 07 ca  	sb	zero, -0x344(a5)
80201968: 03 47 f4 fe  	lbu	a4, -0x11(s0)
8020196c: 93 07 60 00  	li	a5, 0x6
80201970: 63 e0 e7 02  	bltu	a5, a4, 0x80201990 <schedule+0xb0>
80201974: 83 47 f4 fe  	lbu	a5, -0x11(s0)
80201978: 37 27 aa 80  	lui	a4, 0x80aa2
8020197c: 13 07 07 a8  	addi	a4, a4, -0x580
80201980: 93 97 27 00  	slli	a5, a5, 0x2
80201984: b3 07 f7 00  	add	a5, a4, a5
80201988: 83 a7 07 00  	lw	a5, 0x0(a5)
8020198c: 63 94 07 00  	bnez	a5, 0x80201994 <schedule+0xb4>
80201990: a3 07 04 fe  	sb	zero, -0x11(s0)
80201994: b7 27 da 80  	lui	a5, 0x80da2
80201998: 83 c7 b7 cb  	lbu	a5, -0x345(a5)
8020199c: 03 47 f4 fe  	lbu	a4, -0x11(s0)
802019a0: 63 1e f7 00  	bne	a4, a5, 0x802019bc <schedule+0xdc>
802019a4: 03 27 84 fe  	lw	a4, -0x18(s0)
802019a8: b7 47 0f 00  	lui	a5, 0xf4
802019ac: b3 07 f7 00  	add	a5, a4, a5
802019b0: 03 a7 87 34  	lw	a4, 0x348(a5)
802019b4: 93 07 10 00  	li	a5, 0x1
802019b8: 63 00 f7 10  	beq	a4, a5, 0x80201ab8 <schedule+0x1d8>
802019bc: 83 47 f4 fe  	lbu	a5, -0x11(s0)
802019c0: 37 27 aa 80  	lui	a4, 0x80aa2
802019c4: 13 07 07 a8  	addi	a4, a4, -0x580
802019c8: 93 97 27 00  	slli	a5, a5, 0x2
802019cc: b3 07 f7 00  	add	a5, a4, a5
802019d0: 83 a7 07 00  	lw	a5, 0x0(a5)
802019d4: 23 22 f4 fe  	sw	a5, -0x1c(s0)
802019d8: 03 27 84 fe  	lw	a4, -0x18(s0)
802019dc: b7 47 0f 00  	lui	a5, 0xf4
802019e0: b3 07 f7 00  	add	a5, a4, a5
802019e4: 03 a7 87 34  	lw	a4, 0x348(a5)
802019e8: 93 07 10 00  	li	a5, 0x1
802019ec: 63 14 f7 06  	bne	a4, a5, 0x80201a54 <schedule+0x174>
802019f0: 03 27 84 fe  	lw	a4, -0x18(s0)
802019f4: b7 47 0f 00  	lui	a5, 0xf4
802019f8: b3 07 f7 00  	add	a5, a4, a5
802019fc: 13 07 20 00  	li	a4, 0x2
80201a00: 23 a4 e7 34  	sw	a4, 0x348(a5)
80201a04: ef f0 8f f4  	jal	0x8020114c <read_csr_sepc>
80201a08: 13 07 05 00  	mv	a4, a0
80201a0c: 83 27 84 fe  	lw	a5, -0x18(s0)
80201a10: 23 a0 e7 08  	sw	a4, 0x80(a5)
80201a14: 03 27 44 fe  	lw	a4, -0x1c(s0)
80201a18: b7 47 0f 00  	lui	a5, 0xf4
80201a1c: b3 07 f7 00  	add	a5, a4, a5
80201a20: 13 07 10 00  	li	a4, 0x1
80201a24: 23 a4 e7 34  	sw	a4, 0x348(a5)
80201a28: b7 27 da 80  	lui	a5, 0x80da2
80201a2c: 03 47 f4 fe  	lbu	a4, -0x11(s0)
80201a30: a3 8d e7 ca  	sb	a4, -0x345(a5)
80201a34: 83 27 44 fe  	lw	a5, -0x1c(s0)
80201a38: 83 a7 07 08  	lw	a5, 0x80(a5)
80201a3c: 13 85 07 00  	mv	a0, a5
80201a40: ef f0 8f f3  	jal	0x80201178 <write_csr_sepc>
80201a44: 83 25 44 fe  	lw	a1, -0x1c(s0)
80201a48: 03 25 84 fe  	lw	a0, -0x18(s0)
80201a4c: ef f0 cf eb  	jal	0x80201108 <switch_context>
80201a50: 6f 00 c0 06  	j	0x80201abc <schedule+0x1dc>
80201a54: 03 27 84 fe  	lw	a4, -0x18(s0)
80201a58: b7 47 0f 00  	lui	a5, 0xf4
80201a5c: b3 07 f7 00  	add	a5, a4, a5
80201a60: 13 07 10 00  	li	a4, 0x1
80201a64: 23 a4 e7 34  	sw	a4, 0x348(a5)
80201a68: 83 27 84 fe  	lw	a5, -0x18(s0)
80201a6c: 83 a7 07 08  	lw	a5, 0x80(a5)
80201a70: 13 85 07 00  	mv	a0, a5
80201a74: ef f0 4f f0  	jal	0x80201178 <write_csr_sepc>
80201a78: 03 25 84 fe  	lw	a0, -0x18(s0)
80201a7c: ef f0 cf e4  	jal	0x802010c8 <load_context>
80201a80: 6f 00 c0 03  	j	0x80201abc <schedule+0x1dc>
80201a84: b7 27 da 80  	lui	a5, 0x80da2
80201a88: 83 c7 87 cb  	lbu	a5, -0x348(a5)
80201a8c: 63 88 07 00  	beqz	a5, 0x80201a9c <schedule+0x1bc>
80201a90: b7 27 da 80  	lui	a5, 0x80da2
80201a94: 23 8c 07 ca  	sb	zero, -0x348(a5)
80201a98: 6f 00 40 02  	j	0x80201abc <schedule+0x1dc>
80201a9c: b7 27 da 80  	lui	a5, 0x80da2
80201aa0: 83 c7 c7 cb  	lbu	a5, -0x344(a5)
80201aa4: 93 87 17 00  	addi	a5, a5, 0x1
80201aa8: 13 f7 f7 0f  	andi	a4, a5, 0xff
80201aac: b7 27 da 80  	lui	a5, 0x80da2
80201ab0: 23 8e e7 ca  	sb	a4, -0x344(a5)
80201ab4: 6f 00 80 00  	j	0x80201abc <schedule+0x1dc>
80201ab8: 13 00 00 00  	nop
80201abc: 83 20 c1 01  	lw	ra, 0x1c(sp)
80201ac0: 03 24 81 01  	lw	s0, 0x18(sp)
80201ac4: 13 01 01 02  	addi	sp, sp, 0x20
80201ac8: 67 80 00 00  	ret

80201acc <remove_process>:
80201acc: 13 01 01 fd  	addi	sp, sp, -0x30
80201ad0: 23 26 11 02  	sw	ra, 0x2c(sp)
80201ad4: 23 24 81 02  	sw	s0, 0x28(sp)
80201ad8: 13 04 01 03  	addi	s0, sp, 0x30
80201adc: 93 07 05 00  	mv	a5, a0
80201ae0: a3 0f f4 fc  	sb	a5, -0x21(s0)
80201ae4: b7 27 da 80  	lui	a5, 0x80da2
80201ae8: 83 c7 a7 cb  	lbu	a5, -0x346(a5)
80201aec: 63 96 07 00  	bnez	a5, 0x80201af8 <remove_process+0x2c>
80201af0: 93 07 00 00  	li	a5, 0x0
80201af4: 6f 00 00 1c  	j	0x80201cb4 <remove_process+0x1e8>
80201af8: b7 27 da 80  	lui	a5, 0x80da2
80201afc: 13 07 f0 ff  	li	a4, -0x1
80201b00: 23 8e e7 ca  	sb	a4, -0x344(a5)
80201b04: 83 47 f4 fd  	lbu	a5, -0x21(s0)
80201b08: 63 90 07 02  	bnez	a5, 0x80201b28 <remove_process+0x5c>
80201b0c: b7 27 da 80  	lui	a5, 0x80da2
80201b10: 83 c7 a7 cb  	lbu	a5, -0x346(a5)
80201b14: 93 97 17 00  	slli	a5, a5, 0x1
80201b18: 13 f7 f7 0f  	andi	a4, a5, 0xff
80201b1c: b7 27 da 80  	lui	a5, 0x80da2
80201b20: 23 8d e7 ca  	sb	a4, -0x346(a5)
80201b24: 6f 00 80 0b  	j	0x80201bdc <remove_process+0x110>
80201b28: 03 47 f4 fd  	lbu	a4, -0x21(s0)
80201b2c: 93 07 70 00  	li	a5, 0x7
80201b30: 63 10 f7 02  	bne	a4, a5, 0x80201b50 <remove_process+0x84>
80201b34: b7 27 da 80  	lui	a5, 0x80da2
80201b38: 83 c7 a7 cb  	lbu	a5, -0x346(a5)
80201b3c: 93 f7 e7 ff  	andi	a5, a5, -0x2
80201b40: 13 f7 f7 0f  	andi	a4, a5, 0xff
80201b44: b7 27 da 80  	lui	a5, 0x80da2
80201b48: 23 8d e7 ca  	sb	a4, -0x346(a5)
80201b4c: 6f 00 00 09  	j	0x80201bdc <remove_process+0x110>
80201b50: 83 47 f4 fd  	lbu	a5, -0x21(s0)
80201b54: 13 85 07 00  	mv	a0, a5
80201b58: ef f0 8f e4  	jal	0x802011a0 <make_mask_portion>
80201b5c: 93 07 05 00  	mv	a5, a0
80201b60: 23 07 f4 fe  	sb	a5, -0x12(s0)
80201b64: 83 47 f4 fd  	lbu	a5, -0x21(s0)
80201b68: 13 87 07 00  	mv	a4, a5
80201b6c: 93 07 70 00  	li	a5, 0x7
80201b70: b3 87 e7 40  	sub	a5, a5, a4
80201b74: 93 f7 f7 0f  	andi	a5, a5, 0xff
80201b78: 13 85 07 00  	mv	a0, a5
80201b7c: ef f0 4f e2  	jal	0x802011a0 <make_mask_portion>
80201b80: 93 07 05 00  	mv	a5, a0
80201b84: 13 87 07 00  	mv	a4, a5
80201b88: 83 47 f4 fd  	lbu	a5, -0x21(s0)
80201b8c: 93 87 17 00  	addi	a5, a5, 0x1
80201b90: b3 57 f7 40  	sra	a5, a4, a5
80201b94: a3 06 f4 fe  	sb	a5, -0x13(s0)
80201b98: b7 27 da 80  	lui	a5, 0x80da2
80201b9c: 83 c7 a7 cb  	lbu	a5, -0x346(a5)
80201ba0: 03 47 d4 fe  	lbu	a4, -0x13(s0)
80201ba4: b3 f7 e7 00  	and	a5, a5, a4
80201ba8: 93 f7 f7 0f  	andi	a5, a5, 0xff
80201bac: 93 97 87 01  	slli	a5, a5, 0x18
80201bb0: 93 d7 87 41  	srai	a5, a5, 0x18
80201bb4: 93 97 17 00  	slli	a5, a5, 0x1
80201bb8: 13 97 87 01  	slli	a4, a5, 0x18
80201bbc: 13 57 87 41  	srai	a4, a4, 0x18
80201bc0: 83 07 e4 fe  	lb	a5, -0x12(s0)
80201bc4: b3 67 f7 00  	or	a5, a4, a5
80201bc8: 93 97 87 01  	slli	a5, a5, 0x18
80201bcc: 93 d7 87 41  	srai	a5, a5, 0x18
80201bd0: 13 f7 f7 0f  	andi	a4, a5, 0xff
80201bd4: b7 27 da 80  	lui	a5, 0x80da2
80201bd8: 23 8d e7 ca  	sb	a4, -0x346(a5)
80201bdc: 83 47 f4 fd  	lbu	a5, -0x21(s0)
80201be0: 37 27 aa 80  	lui	a4, 0x80aa2
80201be4: 13 07 07 a8  	addi	a4, a4, -0x580
80201be8: 93 97 27 00  	slli	a5, a5, 0x2
80201bec: b3 07 f7 00  	add	a5, a4, a5
80201bf0: 83 a7 07 00  	lw	a5, 0x0(a5)
80201bf4: 23 24 f4 fe  	sw	a5, -0x18(s0)
80201bf8: 03 27 84 fe  	lw	a4, -0x18(s0)
80201bfc: b7 47 0f 00  	lui	a5, 0xf4
80201c00: b3 07 f7 00  	add	a5, a4, a5
80201c04: 13 07 30 00  	li	a4, 0x3
80201c08: 23 a4 e7 34  	sw	a4, 0x348(a5)
80201c0c: 03 27 84 fe  	lw	a4, -0x18(s0)
80201c10: b7 47 0f 00  	lui	a5, 0xf4
80201c14: b3 07 f7 00  	add	a5, a4, a5
80201c18: 23 82 07 34  	sb	zero, 0x344(a5)
80201c1c: 03 27 84 fe  	lw	a4, -0x18(s0)
80201c20: b7 47 0f 00  	lui	a5, 0xf4
80201c24: 93 87 47 2c  	addi	a5, a5, 0x2c4
80201c28: 33 07 f7 00  	add	a4, a4, a5
80201c2c: 13 06 10 00  	li	a2, 0x1
80201c30: b7 37 20 80  	lui	a5, 0x80203
80201c34: 93 85 47 e1  	addi	a1, a5, -0x1ec
80201c38: 13 05 07 00  	mv	a0, a4
80201c3c: ef f0 cf aa  	jal	0x80200ee8 <strncpy>
80201c40: 83 47 f4 fd  	lbu	a5, -0x21(s0)
80201c44: a3 07 f4 fe  	sb	a5, -0x11(s0)
80201c48: 6f 00 40 04  	j	0x80201c8c <remove_process+0x1c0>
80201c4c: 83 47 f4 fe  	lbu	a5, -0x11(s0)
80201c50: 13 87 17 00  	addi	a4, a5, 0x1
80201c54: 83 47 f4 fe  	lbu	a5, -0x11(s0)
80201c58: b7 26 aa 80  	lui	a3, 0x80aa2
80201c5c: 93 86 06 a8  	addi	a3, a3, -0x580
80201c60: 13 17 27 00  	slli	a4, a4, 0x2
80201c64: 33 87 e6 00  	add	a4, a3, a4
80201c68: 03 27 07 00  	lw	a4, 0x0(a4)
80201c6c: b7 26 aa 80  	lui	a3, 0x80aa2
80201c70: 93 86 06 a8  	addi	a3, a3, -0x580
80201c74: 93 97 27 00  	slli	a5, a5, 0x2
80201c78: b3 87 f6 00  	add	a5, a3, a5
80201c7c: 23 a0 e7 00  	sw	a4, 0x0(a5)
80201c80: 83 47 f4 fe  	lbu	a5, -0x11(s0)
80201c84: 93 87 17 00  	addi	a5, a5, 0x1
80201c88: a3 07 f4 fe  	sb	a5, -0x11(s0)
80201c8c: 03 47 f4 fe  	lbu	a4, -0x11(s0)
80201c90: 93 07 60 00  	li	a5, 0x6
80201c94: e3 fc e7 fa  	bgeu	a5, a4, 0x80201c4c <remove_process+0x180>
80201c98: b7 27 aa 80  	lui	a5, 0x80aa2
80201c9c: 93 87 07 a8  	addi	a5, a5, -0x580
80201ca0: 23 ae 07 00  	sw	zero, 0x1c(a5)
80201ca4: 83 47 f4 fd  	lbu	a5, -0x21(s0)
80201ca8: 13 85 07 00  	mv	a0, a5
80201cac: ef f0 8f e9  	jal	0x80201344 <change_cp_on_kill>
80201cb0: 93 07 00 00  	li	a5, 0x0
80201cb4: 13 85 07 00  	mv	a0, a5
80201cb8: 83 20 c1 02  	lw	ra, 0x2c(sp)
80201cbc: 03 24 81 02  	lw	s0, 0x28(sp)
80201cc0: 13 01 01 03  	addi	sp, sp, 0x30
80201cc4: 67 80 00 00  	ret

80201cc8 <prog1>:
80201cc8: 13 01 01 fe  	addi	sp, sp, -0x20
80201ccc: 23 2e 11 00  	sw	ra, 0x1c(sp)
80201cd0: 23 2c 81 00  	sw	s0, 0x18(sp)
80201cd4: 13 04 01 02  	addi	s0, sp, 0x20
80201cd8: 23 26 04 fe  	sw	zero, -0x14(s0)
80201cdc: 03 27 c4 fe  	lw	a4, -0x14(s0)
80201ce0: b7 07 00 04  	lui	a5, 0x4000
80201ce4: 93 87 f7 ff  	addi	a5, a5, -0x1
80201ce8: b3 77 f7 00  	and	a5, a4, a5
80201cec: 63 98 07 00  	bnez	a5, 0x80201cfc <prog1+0x34>
80201cf0: b7 37 20 80  	lui	a5, 0x80203
80201cf4: 13 85 87 e1  	addi	a0, a5, -0x1e8
80201cf8: ef e0 df 86  	jal	0x80200564 <uart_printf>
80201cfc: 83 27 c4 fe  	lw	a5, -0x14(s0)
80201d00: 93 87 17 00  	addi	a5, a5, 0x1
80201d04: 23 26 f4 fe  	sw	a5, -0x14(s0)
80201d08: 6f f0 5f fd  	j	0x80201cdc <prog1+0x14>

80201d0c <prog2>:
80201d0c: 13 01 01 fe  	addi	sp, sp, -0x20
80201d10: 23 2e 11 00  	sw	ra, 0x1c(sp)
80201d14: 23 2c 81 00  	sw	s0, 0x18(sp)
80201d18: 13 04 01 02  	addi	s0, sp, 0x20
80201d1c: 23 26 04 fe  	sw	zero, -0x14(s0)
80201d20: 03 27 c4 fe  	lw	a4, -0x14(s0)
80201d24: b7 07 00 04  	lui	a5, 0x4000
80201d28: 93 87 f7 ff  	addi	a5, a5, -0x1
80201d2c: b3 77 f7 00  	and	a5, a4, a5
80201d30: 63 98 07 00  	bnez	a5, 0x80201d40 <prog2+0x34>
80201d34: b7 37 20 80  	lui	a5, 0x80203
80201d38: 13 85 07 e3  	addi	a0, a5, -0x1d0
80201d3c: ef e0 9f 82  	jal	0x80200564 <uart_printf>
80201d40: 83 27 c4 fe  	lw	a5, -0x14(s0)
80201d44: 93 87 17 00  	addi	a5, a5, 0x1
80201d48: 23 26 f4 fe  	sw	a5, -0x14(s0)
80201d4c: 6f f0 5f fd  	j	0x80201d20 <prog2+0x14>

80201d50 <show_ticks>:
80201d50: 13 01 01 fe  	addi	sp, sp, -0x20
80201d54: 23 2e 11 00  	sw	ra, 0x1c(sp)
80201d58: 23 2c 81 00  	sw	s0, 0x18(sp)
80201d5c: 13 04 01 02  	addi	s0, sp, 0x20
80201d60: 23 17 04 fe  	sh	zero, -0x12(s0)
80201d64: b7 37 20 80  	lui	a5, 0x80203
80201d68: 13 85 87 e4  	addi	a0, a5, -0x1b8
80201d6c: ef e0 0f f9  	jal	0x802004fc <uart_prints>
80201d70: 83 57 e4 fe  	lhu	a5, -0x12(s0)
80201d74: 63 96 07 02  	bnez	a5, 0x80201da0 <show_ticks+0x50>
80201d78: 13 05 d0 00  	li	a0, 0xd
80201d7c: ef e0 0f f3  	jal	0x802004ac <uart_putchar>
80201d80: b7 27 da 80  	lui	a5, 0x80da2
80201d84: 03 a7 07 cb  	lw	a4, -0x350(a5)
80201d88: 83 a7 47 cb  	lw	a5, -0x34c(a5)
80201d8c: 93 07 07 00  	mv	a5, a4
80201d90: 93 85 07 00  	mv	a1, a5
80201d94: b7 37 20 80  	lui	a5, 0x80203
80201d98: 13 85 c7 e4  	addi	a0, a5, -0x1b4
80201d9c: ef e0 8f fc  	jal	0x80200564 <uart_printf>
80201da0: 83 57 e4 fe  	lhu	a5, -0x12(s0)
80201da4: 93 87 17 00  	addi	a5, a5, 0x1
80201da8: 23 17 f4 fe  	sh	a5, -0x12(s0)
80201dac: 6f f0 5f fc  	j	0x80201d70 <show_ticks+0x20>

80201db0 <_exec>:
80201db0: 13 01 01 fd  	addi	sp, sp, -0x30
80201db4: 23 26 11 02  	sw	ra, 0x2c(sp)
80201db8: 23 24 81 02  	sw	s0, 0x28(sp)
80201dbc: 13 04 01 03  	addi	s0, sp, 0x30
80201dc0: 93 07 05 00  	mv	a5, a0
80201dc4: 13 87 05 00  	mv	a4, a1
80201dc8: 23 2c c4 fc  	sw	a2, -0x28(s0)
80201dcc: a3 0f f4 fc  	sb	a5, -0x21(s0)
80201dd0: 93 07 07 00  	mv	a5, a4
80201dd4: 23 0f f4 fc  	sb	a5, -0x22(s0)
80201dd8: 13 06 60 00  	li	a2, 0x6
80201ddc: b7 37 20 80  	lui	a5, 0x80203
80201de0: 93 85 87 e5  	addi	a1, a5, -0x1a8
80201de4: 03 25 84 fd  	lw	a0, -0x28(s0)
80201de8: ef f0 0f 9b  	jal	0x80200f98 <strncmp>
80201dec: 93 07 05 00  	mv	a5, a0
80201df0: 63 84 07 04  	beqz	a5, 0x80201e38 <_exec+0x88>
80201df4: b7 27 20 80  	lui	a5, 0x80202
80201df8: 93 86 87 cc  	addi	a3, a5, -0x338
80201dfc: 03 47 e4 fd  	lbu	a4, -0x22(s0)
80201e00: 83 47 f4 fd  	lbu	a5, -0x21(s0)
80201e04: 03 26 84 fd  	lw	a2, -0x28(s0)
80201e08: 93 05 07 00  	mv	a1, a4
80201e0c: 13 85 07 00  	mv	a0, a5
80201e10: ef f0 8f ff  	jal	0x80201608 <add_process>
80201e14: 93 07 05 00  	mv	a5, a0
80201e18: a3 06 f4 fe  	sb	a5, -0x13(s0)
80201e1c: 03 47 d4 fe  	lbu	a4, -0x13(s0)
80201e20: 93 07 20 00  	li	a5, 0x2
80201e24: 63 12 f7 0e  	bne	a4, a5, 0x80201f08 <_exec+0x158>
80201e28: b7 37 20 80  	lui	a5, 0x80203
80201e2c: 13 85 07 e6  	addi	a0, a5, -0x1a0
80201e30: ef e0 4f f3  	jal	0x80200564 <uart_printf>
80201e34: 6f 00 40 0d  	j	0x80201f08 <_exec+0x158>
80201e38: 13 06 60 00  	li	a2, 0x6
80201e3c: b7 37 20 80  	lui	a5, 0x80203
80201e40: 93 85 c7 e9  	addi	a1, a5, -0x164
80201e44: 03 25 84 fd  	lw	a0, -0x28(s0)
80201e48: ef f0 0f 95  	jal	0x80200f98 <strncmp>
80201e4c: 93 07 05 00  	mv	a5, a0
80201e50: 63 84 07 04  	beqz	a5, 0x80201e98 <_exec+0xe8>
80201e54: b7 27 20 80  	lui	a5, 0x80202
80201e58: 93 86 c7 d0  	addi	a3, a5, -0x2f4
80201e5c: 03 47 e4 fd  	lbu	a4, -0x22(s0)
80201e60: 83 47 f4 fd  	lbu	a5, -0x21(s0)
80201e64: 03 26 84 fd  	lw	a2, -0x28(s0)
80201e68: 93 05 07 00  	mv	a1, a4
80201e6c: 13 85 07 00  	mv	a0, a5
80201e70: ef f0 8f f9  	jal	0x80201608 <add_process>
80201e74: 93 07 05 00  	mv	a5, a0
80201e78: 23 07 f4 fe  	sb	a5, -0x12(s0)
80201e7c: 03 47 e4 fe  	lbu	a4, -0x12(s0)
80201e80: 93 07 20 00  	li	a5, 0x2
80201e84: 63 12 f7 08  	bne	a4, a5, 0x80201f08 <_exec+0x158>
80201e88: b7 37 20 80  	lui	a5, 0x80203
80201e8c: 13 85 07 e6  	addi	a0, a5, -0x1a0
80201e90: ef e0 4f ed  	jal	0x80200564 <uart_printf>
80201e94: 6f 00 40 07  	j	0x80201f08 <_exec+0x158>
80201e98: 13 06 b0 00  	li	a2, 0xb
80201e9c: b7 37 20 80  	lui	a5, 0x80203
80201ea0: 93 85 47 ea  	addi	a1, a5, -0x15c
80201ea4: 03 25 84 fd  	lw	a0, -0x28(s0)
80201ea8: ef f0 0f 8f  	jal	0x80200f98 <strncmp>
80201eac: 93 07 05 00  	mv	a5, a0
80201eb0: 63 84 07 04  	beqz	a5, 0x80201ef8 <_exec+0x148>
80201eb4: b7 27 20 80  	lui	a5, 0x80202
80201eb8: 93 86 07 d5  	addi	a3, a5, -0x2b0
80201ebc: 03 47 e4 fd  	lbu	a4, -0x22(s0)
80201ec0: 83 47 f4 fd  	lbu	a5, -0x21(s0)
80201ec4: 03 26 84 fd  	lw	a2, -0x28(s0)
80201ec8: 93 05 07 00  	mv	a1, a4
80201ecc: 13 85 07 00  	mv	a0, a5
80201ed0: ef f0 8f f3  	jal	0x80201608 <add_process>
80201ed4: 93 07 05 00  	mv	a5, a0
80201ed8: a3 07 f4 fe  	sb	a5, -0x11(s0)
80201edc: 03 47 f4 fe  	lbu	a4, -0x11(s0)
80201ee0: 93 07 20 00  	li	a5, 0x2
80201ee4: 63 12 f7 02  	bne	a4, a5, 0x80201f08 <_exec+0x158>
80201ee8: b7 37 20 80  	lui	a5, 0x80203
80201eec: 13 85 07 e6  	addi	a0, a5, -0x1a0
80201ef0: ef e0 4f e7  	jal	0x80200564 <uart_printf>
80201ef4: 6f 00 40 01  	j	0x80201f08 <_exec+0x158>
80201ef8: 83 25 84 fd  	lw	a1, -0x28(s0)
80201efc: b7 37 20 80  	lui	a5, 0x80203
80201f00: 13 85 07 eb  	addi	a0, a5, -0x150
80201f04: ef e0 0f e6  	jal	0x80200564 <uart_printf>
80201f08: 83 20 c1 02  	lw	ra, 0x2c(sp)
80201f0c: 03 24 81 02  	lw	s0, 0x28(sp)
80201f10: 13 01 01 03  	addi	sp, sp, 0x30
80201f14: 67 80 00 00  	ret

80201f18 <_ps>:
80201f18: 13 01 01 fe  	addi	sp, sp, -0x20
80201f1c: 23 2e 11 00  	sw	ra, 0x1c(sp)
80201f20: 23 2c 81 00  	sw	s0, 0x18(sp)
80201f24: 13 04 01 02  	addi	s0, sp, 0x20
80201f28: b7 37 20 80  	lui	a5, 0x80203
80201f2c: 13 85 c7 ed  	addi	a0, a5, -0x124
80201f30: ef e0 4f e3  	jal	0x80200564 <uart_printf>
80201f34: b7 27 da 80  	lui	a5, 0x80da2
80201f38: 03 a7 07 cb  	lw	a4, -0x350(a5)
80201f3c: 83 a7 47 cb  	lw	a5, -0x34c(a5)
80201f40: 93 07 07 00  	mv	a5, a4
80201f44: 93 85 07 00  	mv	a1, a5
80201f48: b7 37 20 80  	lui	a5, 0x80203
80201f4c: 13 85 c7 f7  	addi	a0, a5, -0x84
80201f50: ef e0 4f e1  	jal	0x80200564 <uart_printf>
80201f54: b7 27 da 80  	lui	a5, 0x80da2
80201f58: 83 c7 a7 cb  	lbu	a5, -0x346(a5)
80201f5c: 63 86 07 10  	beqz	a5, 0x80202068 <_ps+0x150>
80201f60: a3 07 04 fe  	sb	zero, -0x11(s0)
80201f64: 6f 00 00 0e  	j	0x80202044 <_ps+0x12c>
80201f68: 83 47 f4 fe  	lbu	a5, -0x11(s0)
80201f6c: 37 27 aa 80  	lui	a4, 0x80aa2
80201f70: 13 07 07 a8  	addi	a4, a4, -0x580
80201f74: 93 97 27 00  	slli	a5, a5, 0x2
80201f78: b3 07 f7 00  	add	a5, a4, a5
80201f7c: 83 a7 07 00  	lw	a5, 0x0(a5)
80201f80: 63 8a 07 0c  	beqz	a5, 0x80202054 <_ps+0x13c>
80201f84: 83 47 f4 fe  	lbu	a5, -0x11(s0)
80201f88: 37 27 aa 80  	lui	a4, 0x80aa2
80201f8c: 13 07 07 a8  	addi	a4, a4, -0x580
80201f90: 93 97 27 00  	slli	a5, a5, 0x2
80201f94: b3 07 f7 00  	add	a5, a4, a5
80201f98: 03 a7 07 00  	lw	a4, 0x0(a5)
80201f9c: b7 47 0f 00  	lui	a5, 0xf4
80201fa0: b3 07 f7 00  	add	a5, a4, a5
80201fa4: 03 a7 87 34  	lw	a4, 0x348(a5)
80201fa8: 93 07 30 00  	li	a5, 0x3
80201fac: 63 06 f7 08  	beq	a4, a5, 0x80202038 <_ps+0x120>
80201fb0: 83 47 f4 fe  	lbu	a5, -0x11(s0)
80201fb4: 37 27 aa 80  	lui	a4, 0x80aa2
80201fb8: 13 07 07 a8  	addi	a4, a4, -0x580
80201fbc: 93 97 27 00  	slli	a5, a5, 0x2
80201fc0: b3 07 f7 00  	add	a5, a4, a5
80201fc4: 03 a7 07 00  	lw	a4, 0x0(a5)
80201fc8: b7 47 0f 00  	lui	a5, 0xf4
80201fcc: b3 07 f7 00  	add	a5, a4, a5
80201fd0: 83 a7 87 34  	lw	a5, 0x348(a5)
80201fd4: 63 82 07 06  	beqz	a5, 0x80202038 <_ps+0x120>
80201fd8: 83 47 f4 fe  	lbu	a5, -0x11(s0)
80201fdc: 37 27 aa 80  	lui	a4, 0x80aa2
80201fe0: 13 07 07 a8  	addi	a4, a4, -0x580
80201fe4: 93 97 27 00  	slli	a5, a5, 0x2
80201fe8: b3 07 f7 00  	add	a5, a4, a5
80201fec: 03 a7 07 00  	lw	a4, 0x0(a5)
80201ff0: b7 47 0f 00  	lui	a5, 0xf4
80201ff4: b3 07 f7 00  	add	a5, a4, a5
80201ff8: 83 c7 47 34  	lbu	a5, 0x344(a5)
80201ffc: 93 86 07 00  	mv	a3, a5
80202000: 83 47 f4 fe  	lbu	a5, -0x11(s0)
80202004: 37 27 aa 80  	lui	a4, 0x80aa2
80202008: 13 07 07 a8  	addi	a4, a4, -0x580
8020200c: 93 97 27 00  	slli	a5, a5, 0x2
80202010: b3 07 f7 00  	add	a5, a4, a5
80202014: 03 a7 07 00  	lw	a4, 0x0(a5)
80202018: b7 47 0f 00  	lui	a5, 0xf4
8020201c: 93 87 47 2c  	addi	a5, a5, 0x2c4
80202020: b3 07 f7 00  	add	a5, a4, a5
80202024: 13 86 07 00  	mv	a2, a5
80202028: 93 85 06 00  	mv	a1, a3
8020202c: b7 37 20 80  	lui	a5, 0x80203
80202030: 13 85 87 f9  	addi	a0, a5, -0x68
80202034: ef e0 0f d3  	jal	0x80200564 <uart_printf>
80202038: 83 47 f4 fe  	lbu	a5, -0x11(s0)
8020203c: 93 87 17 00  	addi	a5, a5, 0x1
80202040: a3 07 f4 fe  	sb	a5, -0x11(s0)
80202044: 03 47 f4 fe  	lbu	a4, -0x11(s0)
80202048: 93 07 70 00  	li	a5, 0x7
8020204c: e3 fe e7 f0  	bgeu	a5, a4, 0x80201f68 <_ps+0x50>
80202050: 6f 00 80 00  	j	0x80202058 <_ps+0x140>
80202054: 13 00 00 00  	nop
80202058: b7 37 20 80  	lui	a5, 0x80203
8020205c: 13 85 c7 fa  	addi	a0, a5, -0x54
80202060: ef e0 cf c9  	jal	0x802004fc <uart_prints>
80202064: 6f 00 80 00  	j	0x8020206c <_ps+0x154>
80202068: 13 00 00 00  	nop
8020206c: 83 20 c1 01  	lw	ra, 0x1c(sp)
80202070: 03 24 81 01  	lw	s0, 0x18(sp)
80202074: 13 01 01 02  	addi	sp, sp, 0x20
80202078: 67 80 00 00  	ret

8020207c <_kill>:
8020207c: 13 01 01 fd  	addi	sp, sp, -0x30
80202080: 23 26 11 02  	sw	ra, 0x2c(sp)
80202084: 23 24 81 02  	sw	s0, 0x28(sp)
80202088: 13 04 01 03  	addi	s0, sp, 0x30
8020208c: 93 07 05 00  	mv	a5, a0
80202090: a3 0f f4 fc  	sb	a5, -0x21(s0)
80202094: b7 27 da 80  	lui	a5, 0x80da2
80202098: 83 c7 a7 cb  	lbu	a5, -0x346(a5)
8020209c: 63 9a 07 00  	bnez	a5, 0x802020b0 <_kill+0x34>
802020a0: b7 37 20 80  	lui	a5, 0x80203
802020a4: 13 85 07 fb  	addi	a0, a5, -0x50
802020a8: ef e0 4f c5  	jal	0x802004fc <uart_prints>
802020ac: 6f 00 40 07  	j	0x80202120 <_kill+0xa4>
802020b0: a3 07 04 fe  	sb	zero, -0x11(s0)
802020b4: 6f 00 c0 04  	j	0x80202100 <_kill+0x84>
802020b8: 83 47 f4 fe  	lbu	a5, -0x11(s0)
802020bc: 37 27 aa 80  	lui	a4, 0x80aa2
802020c0: 13 07 07 a8  	addi	a4, a4, -0x580
802020c4: 93 97 27 00  	slli	a5, a5, 0x2
802020c8: b3 07 f7 00  	add	a5, a4, a5
802020cc: 03 a7 07 00  	lw	a4, 0x0(a5)
802020d0: b7 47 0f 00  	lui	a5, 0xf4
802020d4: b3 07 f7 00  	add	a5, a4, a5
802020d8: 83 c7 47 34  	lbu	a5, 0x344(a5)
802020dc: 03 47 f4 fd  	lbu	a4, -0x21(s0)
802020e0: 63 1a f7 00  	bne	a4, a5, 0x802020f4 <_kill+0x78>
802020e4: 83 47 f4 fe  	lbu	a5, -0x11(s0)
802020e8: 13 85 07 00  	mv	a0, a5
802020ec: ef f0 1f 9e  	jal	0x80201acc <remove_process>
802020f0: 6f 00 00 03  	j	0x80202120 <_kill+0xa4>
802020f4: 83 47 f4 fe  	lbu	a5, -0x11(s0)
802020f8: 93 87 17 00  	addi	a5, a5, 0x1
802020fc: a3 07 f4 fe  	sb	a5, -0x11(s0)
80202100: 03 47 f4 fe  	lbu	a4, -0x11(s0)
80202104: 93 07 70 00  	li	a5, 0x7
80202108: e3 f8 e7 fa  	bgeu	a5, a4, 0x802020b8 <_kill+0x3c>
8020210c: 83 47 f4 fd  	lbu	a5, -0x21(s0)
80202110: 93 85 07 00  	mv	a1, a5
80202114: b7 37 20 80  	lui	a5, 0x80203
80202118: 13 85 07 fe  	addi	a0, a5, -0x20
8020211c: ef e0 8f c4  	jal	0x80200564 <uart_printf>
80202120: 83 20 c1 02  	lw	ra, 0x2c(sp)
80202124: 03 24 81 02  	lw	s0, 0x28(sp)
80202128: 13 01 01 03  	addi	sp, sp, 0x30
8020212c: 67 80 00 00  	ret

80202130 <_shell>:
80202130: 13 01 01 ff  	addi	sp, sp, -0x10
80202134: 23 26 11 00  	sw	ra, 0xc(sp)
80202138: 23 24 81 00  	sw	s0, 0x8(sp)
8020213c: 13 04 01 01  	addi	s0, sp, 0x10
80202140: b7 37 20 80  	lui	a5, 0x80203
80202144: 13 85 47 01  	addi	a0, a5, 0x14
80202148: ef e0 4f bb  	jal	0x802004fc <uart_prints>
8020214c: 13 00 00 00  	nop
80202150: 83 20 c1 00  	lw	ra, 0xc(sp)
80202154: 03 24 81 00  	lw	s0, 0x8(sp)
80202158: 13 01 01 01  	addi	sp, sp, 0x10
8020215c: 67 80 00 00  	ret

80202160 <_clear>:
80202160: 13 01 01 ff  	addi	sp, sp, -0x10
80202164: 23 26 11 00  	sw	ra, 0xc(sp)
80202168: 23 24 81 00  	sw	s0, 0x8(sp)
8020216c: 13 04 01 01  	addi	s0, sp, 0x10
80202170: ef e0 cf b0  	jal	0x8020047c <clear_screen>
80202174: 13 00 00 00  	nop
80202178: 83 20 c1 00  	lw	ra, 0xc(sp)
8020217c: 03 24 81 00  	lw	s0, 0x8(sp)
80202180: 13 01 01 01  	addi	sp, sp, 0x10
80202184: 67 80 00 00  	ret

80202188 <setup_keyboard_interrupt>:
80202188: 13 01 01 fe  	addi	sp, sp, -0x20
8020218c: 23 2e 11 00  	sw	ra, 0x1c(sp)
80202190: 23 2c 81 00  	sw	s0, 0x18(sp)
80202194: 13 04 01 02  	addi	s0, sp, 0x20
80202198: 93 07 05 00  	mv	a5, a0
8020219c: 23 24 b4 fe  	sw	a1, -0x18(s0)
802021a0: 23 22 c4 fe  	sw	a2, -0x1c(s0)
802021a4: 23 17 f4 fe  	sh	a5, -0x12(s0)
802021a8: 83 57 e4 fe  	lhu	a5, -0x12(s0)
802021ac: 83 25 84 fe  	lw	a1, -0x18(s0)
802021b0: 13 85 07 00  	mv	a0, a5
802021b4: ef e0 5f a5  	jal	0x80200c08 <set_plic_source_pry>
802021b8: 83 57 e4 fe  	lhu	a5, -0x12(s0)
802021bc: 93 85 07 00  	mv	a1, a5
802021c0: 03 25 44 fe  	lw	a0, -0x1c(s0)
802021c4: ef e0 df ae  	jal	0x80200cb0 <set_plic_source_int_en>
802021c8: 13 00 00 00  	nop
802021cc: 83 20 c1 01  	lw	ra, 0x1c(sp)
802021d0: 03 24 81 01  	lw	s0, 0x18(sp)
802021d4: 13 01 01 02  	addi	sp, sp, 0x20
802021d8: 67 80 00 00  	ret

802021dc <truncate_buffer>:
802021dc: 13 01 01 fe  	addi	sp, sp, -0x20
802021e0: 23 2e 81 00  	sw	s0, 0x1c(sp)
802021e4: 13 04 01 02  	addi	s0, sp, 0x20
802021e8: b7 27 da 80  	lui	a5, 0x80da2
802021ec: 83 c7 57 cc  	lbu	a5, -0x33b(a5)
802021f0: 93 87 f7 ff  	addi	a5, a5, -0x1
802021f4: a3 07 f4 fe  	sb	a5, -0x11(s0)
802021f8: 6f 00 c0 03  	j	0x80202234 <truncate_buffer+0x58>
802021fc: 83 47 f4 fe  	lbu	a5, -0x11(s0)
80202200: 13 87 17 00  	addi	a4, a5, 0x1
80202204: 83 47 f4 fe  	lbu	a5, -0x11(s0)
80202208: b7 26 aa 80  	lui	a3, 0x80aa2
8020220c: 93 86 06 aa  	addi	a3, a3, -0x560
80202210: 33 87 e6 00  	add	a4, a3, a4
80202214: 03 47 07 00  	lbu	a4, 0x0(a4)
80202218: b7 26 aa 80  	lui	a3, 0x80aa2
8020221c: 93 86 06 aa  	addi	a3, a3, -0x560
80202220: b3 87 f6 00  	add	a5, a3, a5
80202224: 23 80 e7 00  	sb	a4, 0x0(a5)
80202228: 83 47 f4 fe  	lbu	a5, -0x11(s0)
8020222c: 93 87 17 00  	addi	a5, a5, 0x1
80202230: a3 07 f4 fe  	sb	a5, -0x11(s0)
80202234: b7 27 da 80  	lui	a5, 0x80da2
80202238: 83 c7 47 cc  	lbu	a5, -0x33c(a5)
8020223c: 03 47 f4 fe  	lbu	a4, -0x11(s0)
80202240: e3 6e f7 fa  	bltu	a4, a5, 0x802021fc <truncate_buffer+0x20>
80202244: 13 00 00 00  	nop
80202248: 13 00 00 00  	nop
8020224c: 03 24 c1 01  	lw	s0, 0x1c(sp)
80202250: 13 01 01 02  	addi	sp, sp, 0x20
80202254: 67 80 00 00  	ret

80202258 <subroutine_ctrl_p>:
80202258: 13 01 01 ff  	addi	sp, sp, -0x10
8020225c: 23 26 11 00  	sw	ra, 0xc(sp)
80202260: 23 24 81 00  	sw	s0, 0x8(sp)
80202264: 13 04 01 01  	addi	s0, sp, 0x10
80202268: b7 37 20 80  	lui	a5, 0x80203
8020226c: 13 85 47 02  	addi	a0, a5, 0x24
80202270: ef e0 cf a8  	jal	0x802004fc <uart_prints>
80202274: 13 00 00 00  	nop
80202278: 83 20 c1 00  	lw	ra, 0xc(sp)
8020227c: 03 24 81 00  	lw	s0, 0x8(sp)
80202280: 13 01 01 01  	addi	sp, sp, 0x10
80202284: 67 80 00 00  	ret

80202288 <subroutine_enter>:
80202288: 13 01 01 ff  	addi	sp, sp, -0x10
8020228c: 23 26 11 00  	sw	ra, 0xc(sp)
80202290: 23 24 81 00  	sw	s0, 0x8(sp)
80202294: 13 04 01 01  	addi	s0, sp, 0x10
80202298: 13 05 a0 00  	li	a0, 0xa
8020229c: ef e0 0f a1  	jal	0x802004ac <uart_putchar>
802022a0: 13 05 d0 00  	li	a0, 0xd
802022a4: ef e0 8f a0  	jal	0x802004ac <uart_putchar>
802022a8: b7 27 da 80  	lui	a5, 0x80da2
802022ac: 83 c7 47 cc  	lbu	a5, -0x33c(a5)
802022b0: 13 87 17 00  	addi	a4, a5, 0x1
802022b4: 93 76 f7 0f  	andi	a3, a4, 0xff
802022b8: 37 27 da 80  	lui	a4, 0x80da2
802022bc: 23 02 d7 cc  	sb	a3, -0x33c(a4)
802022c0: 13 87 07 00  	mv	a4, a5
802022c4: b7 27 aa 80  	lui	a5, 0x80aa2
802022c8: 93 87 07 aa  	addi	a5, a5, -0x560
802022cc: b3 87 e7 00  	add	a5, a5, a4
802022d0: 23 80 07 00  	sb	zero, 0x0(a5)
802022d4: b7 27 da 80  	lui	a5, 0x80da2
802022d8: 83 c7 47 cc  	lbu	a5, -0x33c(a5)
802022dc: 13 86 07 00  	mv	a2, a5
802022e0: b7 27 aa 80  	lui	a5, 0x80aa2
802022e4: 93 85 07 aa  	addi	a1, a5, -0x560
802022e8: b7 27 aa 80  	lui	a5, 0x80aa2
802022ec: 13 85 07 ba  	addi	a0, a5, -0x460
802022f0: ef e0 9f bf  	jal	0x80200ee8 <strncpy>
802022f4: b7 27 da 80  	lui	a5, 0x80da2
802022f8: 23 82 07 cc  	sb	zero, -0x33c(a5)
802022fc: b7 27 da 80  	lui	a5, 0x80da2
80202300: a3 82 07 cc  	sb	zero, -0x33b(a5)
80202304: b7 37 20 80  	lui	a5, 0x80203
80202308: 93 85 47 03  	addi	a1, a5, 0x34
8020230c: b7 27 aa 80  	lui	a5, 0x80aa2
80202310: 13 85 07 ba  	addi	a0, a5, -0x460
80202314: ef e0 df cf  	jal	0x80201010 <is_command>
80202318: 93 07 05 00  	mv	a5, a0
8020231c: 63 80 07 04  	beqz	a5, 0x8020235c <subroutine_enter+0xd4>
80202320: b7 27 da 80  	lui	a5, 0x80da2
80202324: 83 c7 97 cb  	lbu	a5, -0x347(a5)
80202328: 93 87 17 00  	addi	a5, a5, 0x1
8020232c: 13 f7 f7 0f  	andi	a4, a5, 0xff
80202330: b7 27 da 80  	lui	a5, 0x80da2
80202334: a3 8c e7 ca  	sb	a4, -0x347(a5)
80202338: b7 27 da 80  	lui	a5, 0x80da2
8020233c: 03 c7 97 cb  	lbu	a4, -0x347(a5)
80202340: b7 27 aa 80  	lui	a5, 0x80aa2
80202344: 93 87 57 ba  	addi	a5, a5, -0x45b
80202348: 13 86 07 00  	mv	a2, a5
8020234c: 93 05 a0 00  	li	a1, 0xa
80202350: 13 05 07 00  	mv	a0, a4
80202354: ef f0 df a5  	jal	0x80201db0 <_exec>
80202358: 6f 00 00 0a  	j	0x802023f8 <subroutine_enter+0x170>
8020235c: b7 37 20 80  	lui	a5, 0x80203
80202360: 93 85 c7 03  	addi	a1, a5, 0x3c
80202364: b7 27 aa 80  	lui	a5, 0x80aa2
80202368: 13 85 07 ba  	addi	a0, a5, -0x460
8020236c: ef e0 5f ca  	jal	0x80201010 <is_command>
80202370: 93 07 05 00  	mv	a5, a0
80202374: 63 84 07 02  	beqz	a5, 0x8020239c <subroutine_enter+0x114>
80202378: b7 27 aa 80  	lui	a5, 0x80aa2
8020237c: 93 87 07 ba  	addi	a5, a5, -0x460
80202380: 83 c7 57 00  	lbu	a5, 0x5(a5)
80202384: 13 85 07 00  	mv	a0, a5
80202388: ef e0 1f b3  	jal	0x80200eb8 <numerical_to_data>
8020238c: 93 07 05 00  	mv	a5, a0
80202390: 13 85 07 00  	mv	a0, a5
80202394: ef f0 9f ce  	jal	0x8020207c <_kill>
80202398: 6f 00 00 06  	j	0x802023f8 <subroutine_enter+0x170>
8020239c: b7 37 20 80  	lui	a5, 0x80203
802023a0: 93 85 47 04  	addi	a1, a5, 0x44
802023a4: b7 27 aa 80  	lui	a5, 0x80aa2
802023a8: 13 85 07 ba  	addi	a0, a5, -0x460
802023ac: ef e0 5f c6  	jal	0x80201010 <is_command>
802023b0: 93 07 05 00  	mv	a5, a0
802023b4: 63 86 07 00  	beqz	a5, 0x802023c0 <subroutine_enter+0x138>
802023b8: ef f0 1f b6  	jal	0x80201f18 <_ps>
802023bc: 6f 00 c0 03  	j	0x802023f8 <subroutine_enter+0x170>
802023c0: b7 37 20 80  	lui	a5, 0x80203
802023c4: 93 85 87 04  	addi	a1, a5, 0x48
802023c8: b7 27 aa 80  	lui	a5, 0x80aa2
802023cc: 13 85 07 ba  	addi	a0, a5, -0x460
802023d0: ef e0 1f c4  	jal	0x80201010 <is_command>
802023d4: 93 07 05 00  	mv	a5, a0
802023d8: 63 86 07 00  	beqz	a5, 0x802023e4 <subroutine_enter+0x15c>
802023dc: ef f0 5f d8  	jal	0x80202160 <_clear>
802023e0: 6f 00 80 01  	j	0x802023f8 <subroutine_enter+0x170>
802023e4: b7 27 aa 80  	lui	a5, 0x80aa2
802023e8: 93 85 07 ba  	addi	a1, a5, -0x460
802023ec: b7 37 20 80  	lui	a5, 0x80203
802023f0: 13 85 07 05  	addi	a0, a5, 0x50
802023f4: ef e0 0f 97  	jal	0x80200564 <uart_printf>
802023f8: ef f0 9f d3  	jal	0x80202130 <_shell>
802023fc: 13 00 00 00  	nop
80202400: 83 20 c1 00  	lw	ra, 0xc(sp)
80202404: 03 24 81 00  	lw	s0, 0x8(sp)
80202408: 13 01 01 01  	addi	sp, sp, 0x10
8020240c: 67 80 00 00  	ret

80202410 <subroutine_backspace>:
80202410: 13 01 01 ff  	addi	sp, sp, -0x10
80202414: 23 26 11 00  	sw	ra, 0xc(sp)
80202418: 23 24 81 00  	sw	s0, 0x8(sp)
8020241c: 13 04 01 01  	addi	s0, sp, 0x10
80202420: b7 27 da 80  	lui	a5, 0x80da2
80202424: 83 c7 47 cc  	lbu	a5, -0x33c(a5)
80202428: 63 82 07 02  	beqz	a5, 0x8020244c <subroutine_backspace+0x3c>
8020242c: 13 05 80 00  	li	a0, 0x8
80202430: ef e0 cf 87  	jal	0x802004ac <uart_putchar>
80202434: 13 05 00 02  	li	a0, 0x20
80202438: ef e0 4f 87  	jal	0x802004ac <uart_putchar>
8020243c: 13 05 80 00  	li	a0, 0x8
80202440: ef e0 cf 86  	jal	0x802004ac <uart_putchar>
80202444: 13 05 00 00  	li	a0, 0x0
80202448: ef e0 4f 86  	jal	0x802004ac <uart_putchar>
8020244c: b7 27 da 80  	lui	a5, 0x80da2
80202450: 83 c7 57 cc  	lbu	a5, -0x33b(a5)
80202454: 37 27 da 80  	lui	a4, 0x80da2
80202458: 03 47 57 cc  	lbu	a4, -0x33b(a4)
8020245c: 33 37 e0 00  	snez	a4, a4
80202460: 13 77 f7 0f  	andi	a4, a4, 0xff
80202464: b3 87 e7 40  	sub	a5, a5, a4
80202468: 13 f7 f7 0f  	andi	a4, a5, 0xff
8020246c: b7 27 da 80  	lui	a5, 0x80da2
80202470: a3 82 e7 cc  	sb	a4, -0x33b(a5)
80202474: b7 27 da 80  	lui	a5, 0x80da2
80202478: 83 c7 47 cc  	lbu	a5, -0x33c(a5)
8020247c: 37 27 da 80  	lui	a4, 0x80da2
80202480: 03 47 47 cc  	lbu	a4, -0x33c(a4)
80202484: 33 37 e0 00  	snez	a4, a4
80202488: 13 77 f7 0f  	andi	a4, a4, 0xff
8020248c: b3 87 e7 40  	sub	a5, a5, a4
80202490: 13 f7 f7 0f  	andi	a4, a5, 0xff
80202494: b7 27 da 80  	lui	a5, 0x80da2
80202498: 23 82 e7 cc  	sb	a4, -0x33c(a5)
8020249c: 13 00 00 00  	nop
802024a0: 83 20 c1 00  	lw	ra, 0xc(sp)
802024a4: 03 24 81 00  	lw	s0, 0x8(sp)
802024a8: 13 01 01 01  	addi	sp, sp, 0x10
802024ac: 67 80 00 00  	ret

802024b0 <subroutine_left>:
802024b0: 13 01 01 ff  	addi	sp, sp, -0x10
802024b4: 23 26 81 00  	sw	s0, 0xc(sp)
802024b8: 13 04 01 01  	addi	s0, sp, 0x10
802024bc: b7 27 da 80  	lui	a5, 0x80da2
802024c0: 83 c7 57 cc  	lbu	a5, -0x33b(a5)
802024c4: 37 27 da 80  	lui	a4, 0x80da2
802024c8: 03 47 57 cc  	lbu	a4, -0x33b(a4)
802024cc: 33 37 e0 00  	snez	a4, a4
802024d0: 13 77 f7 0f  	andi	a4, a4, 0xff
802024d4: b3 87 e7 40  	sub	a5, a5, a4
802024d8: 13 f7 f7 0f  	andi	a4, a5, 0xff
802024dc: b7 27 da 80  	lui	a5, 0x80da2
802024e0: a3 82 e7 cc  	sb	a4, -0x33b(a5)
802024e4: 13 00 00 00  	nop
802024e8: 03 24 c1 00  	lw	s0, 0xc(sp)
802024ec: 13 01 01 01  	addi	sp, sp, 0x10
802024f0: 67 80 00 00  	ret

802024f4 <subroutine_non_special_key>:
802024f4: 13 01 01 fe  	addi	sp, sp, -0x20
802024f8: 23 2e 11 00  	sw	ra, 0x1c(sp)
802024fc: 23 2c 81 00  	sw	s0, 0x18(sp)
80202500: 13 04 01 02  	addi	s0, sp, 0x20
80202504: 93 07 05 00  	mv	a5, a0
80202508: a3 07 f4 fe  	sb	a5, -0x11(s0)
8020250c: 83 47 f4 fe  	lbu	a5, -0x11(s0)
80202510: 13 85 07 00  	mv	a0, a5
80202514: ef d0 9f f9  	jal	0x802004ac <uart_putchar>
80202518: 13 00 00 00  	nop
8020251c: 83 20 c1 01  	lw	ra, 0x1c(sp)
80202520: 03 24 81 01  	lw	s0, 0x18(sp)
80202524: 13 01 01 02  	addi	sp, sp, 0x20
80202528: 67 80 00 00  	ret

8020252c <process_keys>:
8020252c: 13 01 01 fe  	addi	sp, sp, -0x20
80202530: 23 2e 11 00  	sw	ra, 0x1c(sp)
80202534: 23 2c 81 00  	sw	s0, 0x18(sp)
80202538: 13 04 01 02  	addi	s0, sp, 0x20
8020253c: 93 07 05 00  	mv	a5, a0
80202540: a3 07 f4 fe  	sb	a5, -0x11(s0)
80202544: 83 47 f4 fe  	lbu	a5, -0x11(s0)
80202548: 13 07 00 01  	li	a4, 0x10
8020254c: 63 80 e7 02  	beq	a5, a4, 0x8020256c <process_keys+0x40>
80202550: 13 07 00 01  	li	a4, 0x10
80202554: 63 48 f7 02  	blt	a4, a5, 0x80202584 <process_keys+0x58>
80202558: 13 07 80 00  	li	a4, 0x8
8020255c: 63 80 e7 02  	beq	a5, a4, 0x8020257c <process_keys+0x50>
80202560: 13 07 d0 00  	li	a4, 0xd
80202564: 63 88 e7 00  	beq	a5, a4, 0x80202574 <process_keys+0x48>
80202568: 6f 00 c0 01  	j	0x80202584 <process_keys+0x58>
8020256c: ef f0 df ce  	jal	0x80202258 <subroutine_ctrl_p>
80202570: 6f 00 c0 07  	j	0x802025ec <process_keys+0xc0>
80202574: ef f0 5f d1  	jal	0x80202288 <subroutine_enter>
80202578: 6f 00 40 07  	j	0x802025ec <process_keys+0xc0>
8020257c: ef f0 5f e9  	jal	0x80202410 <subroutine_backspace>
80202580: 6f 00 c0 06  	j	0x802025ec <process_keys+0xc0>
80202584: b7 27 da 80  	lui	a5, 0x80da2
80202588: 03 c7 47 cc  	lbu	a4, -0x33c(a5)
8020258c: 93 07 f0 0f  	li	a5, 0xff
80202590: 63 06 f7 04  	beq	a4, a5, 0x802025dc <process_keys+0xb0>
80202594: b7 27 da 80  	lui	a5, 0x80da2
80202598: 83 c7 47 cc  	lbu	a5, -0x33c(a5)
8020259c: 93 87 17 00  	addi	a5, a5, 0x1
802025a0: 13 f7 f7 0f  	andi	a4, a5, 0xff
802025a4: b7 27 da 80  	lui	a5, 0x80da2
802025a8: 23 82 e7 cc  	sb	a4, -0x33c(a5)
802025ac: b7 27 da 80  	lui	a5, 0x80da2
802025b0: 83 c7 57 cc  	lbu	a5, -0x33b(a5)
802025b4: 13 87 17 00  	addi	a4, a5, 0x1
802025b8: 93 76 f7 0f  	andi	a3, a4, 0xff
802025bc: 37 27 da 80  	lui	a4, 0x80da2
802025c0: a3 02 d7 cc  	sb	a3, -0x33b(a4)
802025c4: 13 87 07 00  	mv	a4, a5
802025c8: b7 27 aa 80  	lui	a5, 0x80aa2
802025cc: 93 87 07 aa  	addi	a5, a5, -0x560
802025d0: b3 87 e7 00  	add	a5, a5, a4
802025d4: 03 47 f4 fe  	lbu	a4, -0x11(s0)
802025d8: 23 80 e7 00  	sb	a4, 0x0(a5)
802025dc: 83 47 f4 fe  	lbu	a5, -0x11(s0)
802025e0: 13 85 07 00  	mv	a0, a5
802025e4: ef f0 1f f1  	jal	0x802024f4 <subroutine_non_special_key>
802025e8: 13 00 00 00  	nop
802025ec: 13 00 00 00  	nop
802025f0: 83 20 c1 01  	lw	ra, 0x1c(sp)
802025f4: 03 24 81 01  	lw	s0, 0x18(sp)
802025f8: 13 01 01 02  	addi	sp, sp, 0x20
802025fc: 67 80 00 00  	ret

80202600 <read_csr_sepc>:
80202600: 13 01 01 fe  	addi	sp, sp, -0x20
80202604: 23 2e 81 00  	sw	s0, 0x1c(sp)
80202608: 13 04 01 02  	addi	s0, sp, 0x20
8020260c: 23 26 04 fe  	sw	zero, -0x14(s0)
80202610: f3 27 10 14  	csrr	a5, sepc
80202614: 23 26 f4 fe  	sw	a5, -0x14(s0)
80202618: 83 27 c4 fe  	lw	a5, -0x14(s0)
8020261c: 13 85 07 00  	mv	a0, a5
80202620: 03 24 c1 01  	lw	s0, 0x1c(sp)
80202624: 13 01 01 02  	addi	sp, sp, 0x20
80202628: 67 80 00 00  	ret

8020262c <clear_bit_csr_sstatus>:
8020262c: 13 01 01 fe  	addi	sp, sp, -0x20
80202630: 23 2e 81 00  	sw	s0, 0x1c(sp)
80202634: 13 04 01 02  	addi	s0, sp, 0x20
80202638: 23 26 a4 fe  	sw	a0, -0x14(s0)
8020263c: 83 27 c4 fe  	lw	a5, -0x14(s0)
80202640: 73 b0 07 10  	csrc	sstatus, a5
80202644: 13 00 00 00  	nop
80202648: 03 24 c1 01  	lw	s0, 0x1c(sp)
8020264c: 13 01 01 02  	addi	sp, sp, 0x20
80202650: 67 80 00 00  	ret

80202654 <read_csr_sstatus>:
80202654: 13 01 01 fe  	addi	sp, sp, -0x20
80202658: 23 2e 81 00  	sw	s0, 0x1c(sp)
8020265c: 13 04 01 02  	addi	s0, sp, 0x20
80202660: 23 26 04 fe  	sw	zero, -0x14(s0)
80202664: f3 27 00 10  	csrr	a5, sstatus
80202668: 23 26 f4 fe  	sw	a5, -0x14(s0)
8020266c: 83 27 c4 fe  	lw	a5, -0x14(s0)
80202670: 13 85 07 00  	mv	a0, a5
80202674: 03 24 c1 01  	lw	s0, 0x1c(sp)
80202678: 13 01 01 02  	addi	sp, sp, 0x20
8020267c: 67 80 00 00  	ret

80202680 <read_csr_scause>:
80202680: 13 01 01 fe  	addi	sp, sp, -0x20
80202684: 23 2e 81 00  	sw	s0, 0x1c(sp)
80202688: 13 04 01 02  	addi	s0, sp, 0x20
8020268c: 23 26 04 fe  	sw	zero, -0x14(s0)
80202690: f3 27 20 14  	csrr	a5, scause
80202694: 23 26 f4 fe  	sw	a5, -0x14(s0)
80202698: 83 27 c4 fe  	lw	a5, -0x14(s0)
8020269c: 13 85 07 00  	mv	a0, a5
802026a0: 03 24 c1 01  	lw	s0, 0x1c(sp)
802026a4: 13 01 01 02  	addi	sp, sp, 0x20
802026a8: 67 80 00 00  	ret

802026ac <write_csr_sie>:
802026ac: 13 01 01 fe  	addi	sp, sp, -0x20
802026b0: 23 2e 81 00  	sw	s0, 0x1c(sp)
802026b4: 13 04 01 02  	addi	s0, sp, 0x20
802026b8: 23 26 a4 fe  	sw	a0, -0x14(s0)
802026bc: 83 27 c4 fe  	lw	a5, -0x14(s0)
802026c0: 73 90 47 10  	csrw	sie, a5
802026c4: 13 00 00 00  	nop
802026c8: 03 24 c1 01  	lw	s0, 0x1c(sp)
802026cc: 13 01 01 02  	addi	sp, sp, 0x20
802026d0: 67 80 00 00  	ret

802026d4 <write_csr_sstatus>:
802026d4: 13 01 01 fe  	addi	sp, sp, -0x20
802026d8: 23 2e 81 00  	sw	s0, 0x1c(sp)
802026dc: 13 04 01 02  	addi	s0, sp, 0x20
802026e0: 23 26 a4 fe  	sw	a0, -0x14(s0)
802026e4: 83 27 c4 fe  	lw	a5, -0x14(s0)
802026e8: 73 90 07 10  	csrw	sstatus, a5
802026ec: 13 00 00 00  	nop
802026f0: 03 24 c1 01  	lw	s0, 0x1c(sp)
802026f4: 13 01 01 02  	addi	sp, sp, 0x20
802026f8: 67 80 00 00  	ret

802026fc <write_csr_stvec>:
802026fc: 13 01 01 fe  	addi	sp, sp, -0x20
80202700: 23 2e 81 00  	sw	s0, 0x1c(sp)
80202704: 13 04 01 02  	addi	s0, sp, 0x20
80202708: 23 26 a4 fe  	sw	a0, -0x14(s0)
8020270c: 83 27 c4 fe  	lw	a5, -0x14(s0)
80202710: 73 90 57 10  	csrw	stvec, a5
80202714: 13 00 00 00  	nop
80202718: 03 24 c1 01  	lw	s0, 0x1c(sp)
8020271c: 13 01 01 02  	addi	sp, sp, 0x20
80202720: 67 80 00 00  	ret

80202724 <write_csr_sepc>:
80202724: 13 01 01 fe  	addi	sp, sp, -0x20
80202728: 23 2e 81 00  	sw	s0, 0x1c(sp)
8020272c: 13 04 01 02  	addi	s0, sp, 0x20
80202730: 23 26 a4 fe  	sw	a0, -0x14(s0)
80202734: 83 27 c4 fe  	lw	a5, -0x14(s0)
80202738: 73 90 17 14  	csrw	sepc, a5
8020273c: 13 00 00 00  	nop
80202740: 03 24 c1 01  	lw	s0, 0x1c(sp)
80202744: 13 01 01 02  	addi	sp, sp, 0x20
80202748: 67 80 00 00  	ret

8020274c <write_csr_satp>:
8020274c: 13 01 01 fe  	addi	sp, sp, -0x20
80202750: 23 2e 81 00  	sw	s0, 0x1c(sp)
80202754: 13 04 01 02  	addi	s0, sp, 0x20
80202758: 23 26 a4 fe  	sw	a0, -0x14(s0)
8020275c: 83 27 c4 fe  	lw	a5, -0x14(s0)
80202760: 73 90 07 18  	csrw	satp, a5
80202764: 13 00 00 00  	nop
80202768: 03 24 c1 01  	lw	s0, 0x1c(sp)
8020276c: 13 01 01 02  	addi	sp, sp, 0x20
80202770: 67 80 00 00  	ret

80202774 <setup_timer_int_csrs>:
80202774: 13 01 01 fe  	addi	sp, sp, -0x20
80202778: 23 2e 11 00  	sw	ra, 0x1c(sp)
8020277c: 23 2c 81 00  	sw	s0, 0x18(sp)
80202780: 13 04 01 02  	addi	s0, sp, 0x20
80202784: 23 26 a4 fe  	sw	a0, -0x14(s0)
80202788: ef e0 8f a5  	jal	0x802009e0 <get_mtime>
8020278c: 03 25 c4 fe  	lw	a0, -0x14(s0)
80202790: ef e0 cf a8  	jal	0x80200a1c <set_mtimecmp>
80202794: 13 00 00 00  	nop
80202798: 83 20 c1 01  	lw	ra, 0x1c(sp)
8020279c: 03 24 81 01  	lw	s0, 0x18(sp)
802027a0: 13 01 01 02  	addi	sp, sp, 0x20
802027a4: 67 80 00 00  	ret

802027a8 <reset_system_interrupts>:
802027a8: 13 01 01 ff  	addi	sp, sp, -0x10
802027ac: 23 26 11 00  	sw	ra, 0xc(sp)
802027b0: 23 24 81 00  	sw	s0, 0x8(sp)
802027b4: 13 04 01 01  	addi	s0, sp, 0x10
802027b8: 13 05 20 00  	li	a0, 0x2
802027bc: ef f0 1f e7  	jal	0x8020262c <clear_bit_csr_sstatus>
802027c0: 13 05 00 00  	li	a0, 0x0
802027c4: ef f0 9f ee  	jal	0x802026ac <write_csr_sie>
802027c8: 13 05 00 00  	li	a0, 0x0
802027cc: ef f0 1f f8  	jal	0x8020274c <write_csr_satp>
802027d0: 13 00 00 00  	nop
802027d4: 83 20 c1 00  	lw	ra, 0xc(sp)
802027d8: 03 24 81 00  	lw	s0, 0x8(sp)
802027dc: 13 01 01 01  	addi	sp, sp, 0x10
802027e0: 67 80 00 00  	ret

802027e4 <reset_plic_interrupts>:
802027e4: 13 01 01 ff  	addi	sp, sp, -0x10
802027e8: 23 26 11 00  	sw	ra, 0xc(sp)
802027ec: 23 24 81 00  	sw	s0, 0x8(sp)
802027f0: 13 04 01 01  	addi	s0, sp, 0x10
802027f4: ef e0 4f b8  	jal	0x80200b78 <reset_all_plic_source_pry>
802027f8: b7 27 00 00  	lui	a5, 0x2
802027fc: 13 85 07 08  	addi	a0, a5, 0x80
80202800: ef e0 0f c5  	jal	0x80200c50 <reset_all_plic_int_en>
80202804: 37 15 20 00  	lui	a0, 0x201
80202808: ef e0 8f d2  	jal	0x80200d30 <reset_plic_pry_trsh>
8020280c: 13 00 00 00  	nop
80202810: 83 20 c1 00  	lw	ra, 0xc(sp)
80202814: 03 24 81 00  	lw	s0, 0x8(sp)
80202818: 13 01 01 01  	addi	sp, sp, 0x10
8020281c: 67 80 00 00  	ret

80202820 <reset_interrupts>:
80202820: 13 01 01 ff  	addi	sp, sp, -0x10
80202824: 23 26 11 00  	sw	ra, 0xc(sp)
80202828: 23 24 81 00  	sw	s0, 0x8(sp)
8020282c: 13 04 01 01  	addi	s0, sp, 0x10
80202830: ef f0 9f f7  	jal	0x802027a8 <reset_system_interrupts>
80202834: ef f0 1f fb  	jal	0x802027e4 <reset_plic_interrupts>
80202838: 13 00 00 00  	nop
8020283c: 83 20 c1 00  	lw	ra, 0xc(sp)
80202840: 03 24 81 00  	lw	s0, 0x8(sp)
80202844: 13 01 01 01  	addi	sp, sp, 0x10
80202848: 67 80 00 00  	ret

8020284c <system_interrupts_init>:
8020284c: 13 01 01 fe  	addi	sp, sp, -0x20
80202850: 23 2e 11 00  	sw	ra, 0x1c(sp)
80202854: 23 2c 81 00  	sw	s0, 0x18(sp)
80202858: 13 04 01 02  	addi	s0, sp, 0x20
8020285c: 23 26 a4 fe  	sw	a0, -0x14(s0)
80202860: b7 37 20 80  	lui	a5, 0x80203
80202864: 93 87 07 cc  	addi	a5, a5, -0x340
80202868: 93 e7 17 00  	ori	a5, a5, 0x1
8020286c: 13 85 07 00  	mv	a0, a5
80202870: ef f0 df e8  	jal	0x802026fc <write_csr_stvec>
80202874: 03 25 c4 fe  	lw	a0, -0x14(s0)
80202878: ef f0 5f e3  	jal	0x802026ac <write_csr_sie>
8020287c: ef f0 9f dd  	jal	0x80202654 <read_csr_sstatus>
80202880: 93 07 05 00  	mv	a5, a0
80202884: 93 e7 27 00  	ori	a5, a5, 0x2
80202888: 13 85 07 00  	mv	a0, a5
8020288c: ef f0 9f e4  	jal	0x802026d4 <write_csr_sstatus>
80202890: 13 00 00 00  	nop
80202894: 83 20 c1 01  	lw	ra, 0x1c(sp)
80202898: 03 24 81 01  	lw	s0, 0x18(sp)
8020289c: 13 01 01 02  	addi	sp, sp, 0x20
802028a0: 67 80 00 00  	ret

802028a4 <plic_interrupts_init>:
802028a4: 13 01 01 ff  	addi	sp, sp, -0x10
802028a8: 23 26 11 00  	sw	ra, 0xc(sp)
802028ac: 23 24 81 00  	sw	s0, 0x8(sp)
802028b0: 13 04 01 01  	addi	s0, sp, 0x10
802028b4: 93 05 10 00  	li	a1, 0x1
802028b8: 37 15 20 00  	lui	a0, 0x201
802028bc: ef e0 8f ca  	jal	0x80200d64 <set_plic_pry_trsh>
802028c0: b7 27 00 00  	lui	a5, 0x2
802028c4: 13 86 07 08  	addi	a2, a5, 0x80
802028c8: 93 05 70 00  	li	a1, 0x7
802028cc: 13 05 a0 00  	li	a0, 0xa
802028d0: ef f0 9f 8b  	jal	0x80202188 <setup_keyboard_interrupt>
802028d4: ef d0 df b4  	jal	0x80200420 <enable_uart_rx_interrupt>
802028d8: 13 00 00 00  	nop
802028dc: 83 20 c1 00  	lw	ra, 0xc(sp)
802028e0: 03 24 81 00  	lw	s0, 0x8(sp)
802028e4: 13 01 01 01  	addi	sp, sp, 0x10
802028e8: 67 80 00 00  	ret

802028ec <interrupts_init>:
802028ec: 13 01 01 ff  	addi	sp, sp, -0x10
802028f0: 23 26 11 00  	sw	ra, 0xc(sp)
802028f4: 23 24 81 00  	sw	s0, 0x8(sp)
802028f8: 13 04 01 01  	addi	s0, sp, 0x10
802028fc: 13 05 00 22  	li	a0, 0x220
80202900: ef f0 df f4  	jal	0x8020284c <system_interrupts_init>
80202904: ef f0 1f fa  	jal	0x802028a4 <plic_interrupts_init>
80202908: 13 05 80 3e  	li	a0, 0x3e8
8020290c: ef f0 9f e6  	jal	0x80202774 <setup_timer_int_csrs>
80202910: 13 00 00 00  	nop
80202914: 83 20 c1 00  	lw	ra, 0xc(sp)
80202918: 03 24 81 00  	lw	s0, 0x8(sp)
8020291c: 13 01 01 01  	addi	sp, sp, 0x10
80202920: 67 80 00 00  	ret

80202924 <syscall_handler>:
80202924: 13 01 01 fa  	addi	sp, sp, -0x60
80202928: 23 2e 11 04  	sw	ra, 0x5c(sp)
8020292c: 23 2c 51 04  	sw	t0, 0x58(sp)
80202930: 23 2a 61 04  	sw	t1, 0x54(sp)
80202934: 23 28 71 04  	sw	t2, 0x50(sp)
80202938: 23 26 81 04  	sw	s0, 0x4c(sp)
8020293c: 23 24 a1 04  	sw	a0, 0x48(sp)
80202940: 23 22 b1 04  	sw	a1, 0x44(sp)
80202944: 23 20 c1 04  	sw	a2, 0x40(sp)
80202948: 23 2e d1 02  	sw	a3, 0x3c(sp)
8020294c: 23 2c e1 02  	sw	a4, 0x38(sp)
80202950: 23 2a f1 02  	sw	a5, 0x34(sp)
80202954: 23 28 01 03  	sw	a6, 0x30(sp)
80202958: 23 26 11 03  	sw	a7, 0x2c(sp)
8020295c: 23 24 c1 03  	sw	t3, 0x28(sp)
80202960: 23 22 d1 03  	sw	t4, 0x24(sp)
80202964: 23 20 e1 03  	sw	t5, 0x20(sp)
80202968: 23 2e f1 01  	sw	t6, 0x1c(sp)
8020296c: 13 04 01 06  	addi	s0, sp, 0x60
80202970: ef f0 1f d1  	jal	0x80202680 <read_csr_scause>
80202974: 13 07 05 00  	mv	a4, a0
80202978: 93 07 90 00  	li	a5, 0x9
8020297c: 63 14 f7 0c  	bne	a4, a5, 0x80202a44 <syscall_handler+0x120>
80202980: b7 07 30 80  	lui	a5, 0x80300
80202984: 93 87 07 00  	mv	a5, a5
80202988: 83 a7 c7 01  	lw	a5, 0x1c(a5)
8020298c: 13 07 30 00  	li	a4, 0x3
80202990: 63 84 e7 06  	beq	a5, a4, 0x802029f8 <syscall_handler+0xd4>
80202994: 13 07 30 00  	li	a4, 0x3
80202998: 63 6e f7 06  	bltu	a4, a5, 0x80202a14 <syscall_handler+0xf0>
8020299c: 13 07 10 00  	li	a4, 0x1
802029a0: 63 88 e7 00  	beq	a5, a4, 0x802029b0 <syscall_handler+0x8c>
802029a4: 13 07 20 00  	li	a4, 0x2
802029a8: 63 84 e7 04  	beq	a5, a4, 0x802029f0 <syscall_handler+0xcc>
802029ac: 6f 00 80 06  	j	0x80202a14 <syscall_handler+0xf0>
802029b0: b7 07 30 80  	lui	a5, 0x80300
802029b4: 93 87 07 00  	mv	a5, a5
802029b8: 83 a7 07 00  	lw	a5, 0x0(a5)
802029bc: 13 f7 f7 0f  	andi	a4, a5, 0xff
802029c0: b7 07 30 80  	lui	a5, 0x80300
802029c4: 93 87 07 00  	mv	a5, a5
802029c8: 83 a7 47 00  	lw	a5, 0x4(a5)
802029cc: 93 86 07 00  	mv	a3, a5
802029d0: b7 07 30 80  	lui	a5, 0x80300
802029d4: 93 87 07 00  	mv	a5, a5
802029d8: 83 a7 87 00  	lw	a5, 0x8(a5)
802029dc: 13 86 07 00  	mv	a2, a5
802029e0: 93 85 06 00  	mv	a1, a3
802029e4: 13 05 07 00  	mv	a0, a4
802029e8: ef d0 df 96  	jal	0x80200354 <sys_write>
802029ec: 6f 00 00 04  	j	0x80202a2c <syscall_handler+0x108>
802029f0: ef d0 df 93  	jal	0x8020032c <sys_yield>
802029f4: 6f 00 80 03  	j	0x80202a2c <syscall_handler+0x108>
802029f8: ef d0 5f 9f  	jal	0x802003ec <sys_get_time>
802029fc: 13 07 05 00  	mv	a4, a0
80202a00: 93 87 05 00  	mv	a5, a1
80202a04: b7 26 da 80  	lui	a3, 0x80da2
80202a08: 23 a0 e6 ca  	sw	a4, -0x360(a3)
80202a0c: 23 a2 f6 ca  	sw	a5, -0x35c(a3)
80202a10: 6f 00 c0 01  	j	0x80202a2c <syscall_handler+0x108>
80202a14: b7 26 da 80  	lui	a3, 0x80da2
80202a18: 13 07 f0 ff  	li	a4, -0x1
80202a1c: 93 07 f0 ff  	li	a5, -0x1
80202a20: 23 a0 e6 ca  	sw	a4, -0x360(a3)
80202a24: 23 a2 f6 ca  	sw	a5, -0x35c(a3)
80202a28: 13 00 00 00  	nop
80202a2c: ef f0 5f bd  	jal	0x80202600 <read_csr_sepc>
80202a30: 93 07 05 00  	mv	a5, a0
80202a34: 93 87 47 00  	addi	a5, a5, 0x4
80202a38: 13 85 07 00  	mv	a0, a5
80202a3c: ef f0 9f ce  	jal	0x80202724 <write_csr_sepc>
80202a40: 6f 00 80 03  	j	0x80202a78 <syscall_handler+0x154>
80202a44: b7 07 00 10  	lui	a5, 0x10000
80202a48: 23 26 f4 fa  	sw	a5, -0x54(s0)
80202a4c: 83 27 c4 fa  	lw	a5, -0x54(s0)
80202a50: 13 07 50 04  	li	a4, 0x45
80202a54: 23 80 e7 00  	sb	a4, 0x0(a5)
80202a58: 83 27 c4 fa  	lw	a5, -0x54(s0)
80202a5c: 13 07 20 05  	li	a4, 0x52
80202a60: 23 80 e7 00  	sb	a4, 0x0(a5)
80202a64: 83 27 c4 fa  	lw	a5, -0x54(s0)
80202a68: 13 07 20 05  	li	a4, 0x52
80202a6c: 23 80 e7 00  	sb	a4, 0x0(a5)
80202a70: 13 00 00 00  	nop
80202a74: 6f f0 df ff  	j	0x80202a70 <syscall_handler+0x14c>
80202a78: 83 20 c1 05  	lw	ra, 0x5c(sp)
80202a7c: 83 22 81 05  	lw	t0, 0x58(sp)
80202a80: 03 23 41 05  	lw	t1, 0x54(sp)
80202a84: 83 23 01 05  	lw	t2, 0x50(sp)
80202a88: 03 24 c1 04  	lw	s0, 0x4c(sp)
80202a8c: 03 25 81 04  	lw	a0, 0x48(sp)
80202a90: 83 25 41 04  	lw	a1, 0x44(sp)
80202a94: 03 26 01 04  	lw	a2, 0x40(sp)
80202a98: 83 26 c1 03  	lw	a3, 0x3c(sp)
80202a9c: 03 27 81 03  	lw	a4, 0x38(sp)
80202aa0: 83 27 41 03  	lw	a5, 0x34(sp)
80202aa4: 03 28 01 03  	lw	a6, 0x30(sp)
80202aa8: 83 28 c1 02  	lw	a7, 0x2c(sp)
80202aac: 03 2e 81 02  	lw	t3, 0x28(sp)
80202ab0: 83 2e 41 02  	lw	t4, 0x24(sp)
80202ab4: 03 2f 01 02  	lw	t5, 0x20(sp)
80202ab8: 83 2f c1 01  	lw	t6, 0x1c(sp)
80202abc: 13 01 01 06  	addi	sp, sp, 0x60
80202ac0: 73 00 20 10  	sret

80202ac4 <sti_handler>:
80202ac4: 13 01 01 fb  	addi	sp, sp, -0x50
80202ac8: 23 26 11 04  	sw	ra, 0x4c(sp)
80202acc: 23 24 51 04  	sw	t0, 0x48(sp)
80202ad0: 23 22 61 04  	sw	t1, 0x44(sp)
80202ad4: 23 20 71 04  	sw	t2, 0x40(sp)
80202ad8: 23 2e 81 02  	sw	s0, 0x3c(sp)
80202adc: 23 2c a1 02  	sw	a0, 0x38(sp)
80202ae0: 23 2a b1 02  	sw	a1, 0x34(sp)
80202ae4: 23 28 c1 02  	sw	a2, 0x30(sp)
80202ae8: 23 26 d1 02  	sw	a3, 0x2c(sp)
80202aec: 23 24 e1 02  	sw	a4, 0x28(sp)
80202af0: 23 22 f1 02  	sw	a5, 0x24(sp)
80202af4: 23 20 01 03  	sw	a6, 0x20(sp)
80202af8: 23 2e 11 01  	sw	a7, 0x1c(sp)
80202afc: 23 2c c1 01  	sw	t3, 0x18(sp)
80202b00: 23 2a d1 01  	sw	t4, 0x14(sp)
80202b04: 23 28 e1 01  	sw	t5, 0x10(sp)
80202b08: 23 26 f1 01  	sw	t6, 0xc(sp)
80202b0c: 13 04 01 05  	addi	s0, sp, 0x50
80202b10: b7 27 da 80  	lui	a5, 0x80da2
80202b14: 83 a7 07 cc  	lw	a5, -0x340(a5)
80202b18: 63 9a 07 00  	bnez	a5, 0x80202b2c <sti_handler+0x68>
80202b1c: ef f0 5f ae  	jal	0x80202600 <read_csr_sepc>
80202b20: 13 07 05 00  	mv	a4, a0
80202b24: b7 27 da 80  	lui	a5, 0x80da2
80202b28: 23 a0 e7 cc  	sw	a4, -0x340(a5)
80202b2c: ef e0 5f db  	jal	0x802018e0 <schedule>
80202b30: b7 27 da 80  	lui	a5, 0x80da2
80202b34: 03 a7 07 cb  	lw	a4, -0x350(a5)
80202b38: 83 a7 47 cb  	lw	a5, -0x34c(a5)
80202b3c: 13 05 10 00  	li	a0, 0x1
80202b40: 93 05 00 00  	li	a1, 0x0
80202b44: 33 06 a7 00  	add	a2, a4, a0
80202b48: 13 08 06 00  	mv	a6, a2
80202b4c: 33 38 e8 00  	sltu	a6, a6, a4
80202b50: b3 86 b7 00  	add	a3, a5, a1
80202b54: b3 07 d8 00  	add	a5, a6, a3
80202b58: 93 86 07 00  	mv	a3, a5
80202b5c: 13 07 06 00  	mv	a4, a2
80202b60: 93 87 06 00  	mv	a5, a3
80202b64: b7 26 da 80  	lui	a3, 0x80da2
80202b68: 23 a8 e6 ca  	sw	a4, -0x350(a3)
80202b6c: 23 aa f6 ca  	sw	a5, -0x34c(a3)
80202b70: 13 05 80 3e  	li	a0, 0x3e8
80202b74: ef f0 1f c0  	jal	0x80202774 <setup_timer_int_csrs>
80202b78: 13 00 00 00  	nop
80202b7c: 83 20 c1 04  	lw	ra, 0x4c(sp)
80202b80: 83 22 81 04  	lw	t0, 0x48(sp)
80202b84: 03 23 41 04  	lw	t1, 0x44(sp)
80202b88: 83 23 01 04  	lw	t2, 0x40(sp)
80202b8c: 03 24 c1 03  	lw	s0, 0x3c(sp)
80202b90: 03 25 81 03  	lw	a0, 0x38(sp)
80202b94: 83 25 41 03  	lw	a1, 0x34(sp)
80202b98: 03 26 01 03  	lw	a2, 0x30(sp)
80202b9c: 83 26 c1 02  	lw	a3, 0x2c(sp)
80202ba0: 03 27 81 02  	lw	a4, 0x28(sp)
80202ba4: 83 27 41 02  	lw	a5, 0x24(sp)
80202ba8: 03 28 01 02  	lw	a6, 0x20(sp)
80202bac: 83 28 c1 01  	lw	a7, 0x1c(sp)
80202bb0: 03 2e 81 01  	lw	t3, 0x18(sp)
80202bb4: 83 2e 41 01  	lw	t4, 0x14(sp)
80202bb8: 03 2f 01 01  	lw	t5, 0x10(sp)
80202bbc: 83 2f c1 00  	lw	t6, 0xc(sp)
80202bc0: 13 01 01 05  	addi	sp, sp, 0x50
80202bc4: 73 00 20 10  	sret

80202bc8 <seie_handler>:
80202bc8: 13 01 01 fa  	addi	sp, sp, -0x60
80202bcc: 23 2e 11 04  	sw	ra, 0x5c(sp)
80202bd0: 23 2c 51 04  	sw	t0, 0x58(sp)
80202bd4: 23 2a 61 04  	sw	t1, 0x54(sp)
80202bd8: 23 28 71 04  	sw	t2, 0x50(sp)
80202bdc: 23 26 81 04  	sw	s0, 0x4c(sp)
80202be0: 23 24 a1 04  	sw	a0, 0x48(sp)
80202be4: 23 22 b1 04  	sw	a1, 0x44(sp)
80202be8: 23 20 c1 04  	sw	a2, 0x40(sp)
80202bec: 23 2e d1 02  	sw	a3, 0x3c(sp)
80202bf0: 23 2c e1 02  	sw	a4, 0x38(sp)
80202bf4: 23 2a f1 02  	sw	a5, 0x34(sp)
80202bf8: 23 28 01 03  	sw	a6, 0x30(sp)
80202bfc: 23 26 11 03  	sw	a7, 0x2c(sp)
80202c00: 23 24 c1 03  	sw	t3, 0x28(sp)
80202c04: 23 22 d1 03  	sw	t4, 0x24(sp)
80202c08: 23 20 e1 03  	sw	t5, 0x20(sp)
80202c0c: 23 2e f1 01  	sw	t6, 0x1c(sp)
80202c10: 13 04 01 06  	addi	s0, sp, 0x60
80202c14: b7 17 20 00  	lui	a5, 0x201
80202c18: 13 85 47 00  	addi	a0, a5, 0x4
80202c1c: ef e0 8f 98  	jal	0x80200da4 <read_claim_plic_int_msg>
80202c20: 23 26 a4 fa  	sw	a0, -0x54(s0)
80202c24: 03 27 c4 fa  	lw	a4, -0x54(s0)
80202c28: 93 07 a0 00  	li	a5, 0xa
80202c2c: 63 10 f7 02  	bne	a4, a5, 0x80202c4c <seie_handler+0x84>
80202c30: ef d0 1f 82  	jal	0x80200450 <uart_readchar>
80202c34: 93 07 05 00  	mv	a5, a0
80202c38: a3 05 f4 fa  	sb	a5, -0x55(s0)
80202c3c: 83 47 b4 fa  	lbu	a5, -0x55(s0)
80202c40: 13 85 07 00  	mv	a0, a5
80202c44: ef f0 9f 8e  	jal	0x8020252c <process_keys>
80202c48: 6f 00 80 01  	j	0x80202c60 <seie_handler+0x98>
80202c4c: 83 25 c4 fa  	lw	a1, -0x54(s0)
80202c50: b7 37 20 80  	lui	a5, 0x80203
80202c54: 13 85 07 07  	addi	a0, a5, 0x70
80202c58: ef d0 df 90  	jal	0x80200564 <uart_printf>
80202c5c: 13 00 00 00  	nop
80202c60: 83 25 c4 fa  	lw	a1, -0x54(s0)
80202c64: b7 17 20 00  	lui	a5, 0x201
80202c68: 13 85 47 00  	addi	a0, a5, 0x4
80202c6c: ef e0 cf 96  	jal	0x80200dd8 <send_complete_plic_int_ID>
80202c70: 13 00 00 00  	nop
80202c74: 83 20 c1 05  	lw	ra, 0x5c(sp)
80202c78: 83 22 81 05  	lw	t0, 0x58(sp)
80202c7c: 03 23 41 05  	lw	t1, 0x54(sp)
80202c80: 83 23 01 05  	lw	t2, 0x50(sp)
80202c84: 03 24 c1 04  	lw	s0, 0x4c(sp)
80202c88: 03 25 81 04  	lw	a0, 0x48(sp)
80202c8c: 83 25 41 04  	lw	a1, 0x44(sp)
80202c90: 03 26 01 04  	lw	a2, 0x40(sp)
80202c94: 83 26 c1 03  	lw	a3, 0x3c(sp)
80202c98: 03 27 81 03  	lw	a4, 0x38(sp)
80202c9c: 83 27 41 03  	lw	a5, 0x34(sp)
80202ca0: 03 28 01 03  	lw	a6, 0x30(sp)
80202ca4: 83 28 c1 02  	lw	a7, 0x2c(sp)
80202ca8: 03 2e 81 02  	lw	t3, 0x28(sp)
80202cac: 83 2e 41 02  	lw	t4, 0x24(sp)
80202cb0: 03 2f 01 02  	lw	t5, 0x20(sp)
80202cb4: 83 2f c1 01  	lw	t6, 0x1c(sp)
80202cb8: 13 01 01 06  	addi	sp, sp, 0x60
80202cbc: 73 00 20 10  	sret

80202cc0 <stvec_idt>:
80202cc0: 6f f0 5f c6  	j	0x80202924 <syscall_handler>
		...
80202cd4: 6f f0 1f df  	j	0x80202ac4 <sti_handler>
		...
80202ce4: 6f f0 5f ee  	j	0x80202bc8 <seie_handler>
80202ce8: 13 00 00 00  	nop
		...

80202cf4 <kmain>:
80202cf4: 13 01 01 ff  	addi	sp, sp, -0x10
80202cf8: 23 26 11 00  	sw	ra, 0xc(sp)
80202cfc: 23 24 81 00  	sw	s0, 0x8(sp)
80202d00: 13 04 01 01  	addi	s0, sp, 0x10
80202d04: ef e0 cf ec  	jal	0x802013d0 <initialize_processes>
80202d08: ef f0 9f b1  	jal	0x80202820 <reset_interrupts>
80202d0c: ef f0 1f be  	jal	0x802028ec <interrupts_init>
80202d10: ef f0 0f c2  	jal	0x80202130 <_shell>
80202d14: 13 00 00 00  	nop
80202d18: 6f f0 df ff  	j	0x80202d14 <kmain+0x20>
