
../build/bootloader.elf:	file format elf32-littleriscv

Disassembly of section .text:

80200000 <_start>:
80200000: 17 21 ba 00  	auipc	sp, 0xba2
80200004: 13 01 01 c6  	addi	sp, sp, -0x3a0
80200008: ef 00 80 01  	jal	0x80200020 <_clear_bss>
8020000c: 17 35 00 00  	auipc	a0, 0x3
80200010: 13 05 c5 c5  	addi	a0, a0, -0x3a4
80200014: ef 00 c0 02  	jal	0x80200040 <puts>
80200018: ef 20 d0 3d  	jal	0x80202bf4 <kmain>
8020001c: 6f 00 00 00  	j	0x8020001c <_start+0x1c>

80200020 <_clear_bss>:
80200020: 17 05 10 00  	auipc	a0, 0x100
80200024: 13 05 05 fe  	addi	a0, a0, -0x20
80200028: 97 25 9a 00  	auipc	a1, 0x9a2
8020002c: 93 85 85 c3  	addi	a1, a1, -0x3c8
80200030: 63 06 b5 00  	beq	a0, a1, 0x8020003c <_clear_bss+0x1c>
80200034: 23 20 05 00  	sw	zero, 0x0(a0)
80200038: 13 05 45 00  	addi	a0, a0, 0x4
8020003c: 67 80 00 00  	ret

80200040 <puts>:
80200040: 93 02 05 00  	mv	t0, a0
80200044: 13 01 c1 ff  	addi	sp, sp, -0x4
80200048: 23 20 11 00  	sw	ra, 0x0(sp)

8020004c <loop_puts>:
8020004c: 03 c3 02 00  	lbu	t1, 0x0(t0)
80200050: 63 08 03 00  	beqz	t1, 0x80200060 <end_puts>
80200054: ef 00 80 01  	jal	0x8020006c <putc>
80200058: 93 82 12 00  	addi	t0, t0, 0x1
8020005c: 6f f0 1f ff  	j	0x8020004c <loop_puts>

80200060 <end_puts>:
80200060: 83 20 01 00  	lw	ra, 0x0(sp)
80200064: 13 01 41 00  	addi	sp, sp, 0x4
80200068: 67 80 00 00  	ret

8020006c <putc>:
8020006c: b7 03 00 10  	lui	t2, 0x10000
80200070: 23 80 63 00  	sb	t1, 0x0(t2)
80200074: 67 80 00 00  	ret

80200078 <_fill_space>:
		...
802001fc: 00 00        	<unknown>

802001fe <_signature>:
802001fe: 55 aa        	<unknown>
80200200: 00 00        	<unknown>
80200202: 00 00        	<unknown>

80200204 <enable_uart_rx_interrupt>:
80200204: 13 01 01 ff  	addi	sp, sp, -0x10
80200208: 23 26 81 00  	sw	s0, 0xc(sp)
8020020c: 13 04 01 01  	addi	s0, sp, 0x10
80200210: b7 37 20 80  	lui	a5, 0x80203
80200214: 83 a7 c7 f1  	lw	a5, -0xe4(a5)
80200218: 93 87 17 00  	addi	a5, a5, 0x1
8020021c: 13 07 10 00  	li	a4, 0x1
80200220: 23 80 e7 00  	sb	a4, 0x0(a5)
80200224: 13 00 00 00  	nop
80200228: 03 24 c1 00  	lw	s0, 0xc(sp)
8020022c: 13 01 01 01  	addi	sp, sp, 0x10
80200230: 67 80 00 00  	ret

80200234 <uart_readchar>:
80200234: 13 01 01 ff  	addi	sp, sp, -0x10
80200238: 23 26 81 00  	sw	s0, 0xc(sp)
8020023c: 13 04 01 01  	addi	s0, sp, 0x10
80200240: b7 37 20 80  	lui	a5, 0x80203
80200244: 83 a7 c7 f1  	lw	a5, -0xe4(a5)
80200248: 83 c7 07 00  	lbu	a5, 0x0(a5)
8020024c: 93 f7 f7 0f  	andi	a5, a5, 0xff
80200250: 13 85 07 00  	mv	a0, a5
80200254: 03 24 c1 00  	lw	s0, 0xc(sp)
80200258: 13 01 01 01  	addi	sp, sp, 0x10
8020025c: 67 80 00 00  	ret

80200260 <clear_screen>:
80200260: 13 01 01 ff  	addi	sp, sp, -0x10
80200264: 23 26 11 00  	sw	ra, 0xc(sp)
80200268: 23 24 81 00  	sw	s0, 0x8(sp)
8020026c: 13 04 01 01  	addi	s0, sp, 0x10
80200270: b7 37 20 80  	lui	a5, 0x80203
80200274: 13 85 07 f2  	addi	a0, a5, -0xe0
80200278: ef 00 c0 04  	jal	0x802002c4 <uart_prints>
8020027c: 13 00 00 00  	nop
80200280: 83 20 c1 00  	lw	ra, 0xc(sp)
80200284: 03 24 81 00  	lw	s0, 0x8(sp)
80200288: 13 01 01 01  	addi	sp, sp, 0x10
8020028c: 67 80 00 00  	ret

80200290 <uart_putchar>:
80200290: 13 01 01 fe  	addi	sp, sp, -0x20
80200294: 23 2e 81 00  	sw	s0, 0x1c(sp)
80200298: 13 04 01 02  	addi	s0, sp, 0x20
8020029c: 93 07 05 00  	mv	a5, a0
802002a0: a3 07 f4 fe  	sb	a5, -0x11(s0)
802002a4: b7 37 20 80  	lui	a5, 0x80203
802002a8: 83 a7 c7 f1  	lw	a5, -0xe4(a5)
802002ac: 03 47 f4 fe  	lbu	a4, -0x11(s0)
802002b0: 23 80 e7 00  	sb	a4, 0x0(a5)
802002b4: 13 00 00 00  	nop
802002b8: 03 24 c1 01  	lw	s0, 0x1c(sp)
802002bc: 13 01 01 02  	addi	sp, sp, 0x20
802002c0: 67 80 00 00  	ret

802002c4 <uart_prints>:
802002c4: 13 01 01 fe  	addi	sp, sp, -0x20
802002c8: 23 2e 11 00  	sw	ra, 0x1c(sp)
802002cc: 23 2c 81 00  	sw	s0, 0x18(sp)
802002d0: 13 04 01 02  	addi	s0, sp, 0x20
802002d4: 23 26 a4 fe  	sw	a0, -0x14(s0)
802002d8: 6f 00 c0 01  	j	0x802002f4 <uart_prints+0x30>
802002dc: 83 27 c4 fe  	lw	a5, -0x14(s0)
802002e0: 13 87 17 00  	addi	a4, a5, 0x1
802002e4: 23 26 e4 fe  	sw	a4, -0x14(s0)
802002e8: 83 c7 07 00  	lbu	a5, 0x0(a5)
802002ec: 13 85 07 00  	mv	a0, a5
802002f0: ef f0 1f fa  	jal	0x80200290 <uart_putchar>
802002f4: 83 27 c4 fe  	lw	a5, -0x14(s0)
802002f8: 83 c7 07 00  	lbu	a5, 0x0(a5)
802002fc: e3 90 07 fe  	bnez	a5, 0x802002dc <uart_prints+0x18>
80200300: 13 05 d0 00  	li	a0, 0xd
80200304: ef f0 df f8  	jal	0x80200290 <uart_putchar>
80200308: 13 00 00 00  	nop
8020030c: 83 20 c1 01  	lw	ra, 0x1c(sp)
80200310: 03 24 81 01  	lw	s0, 0x18(sp)
80200314: 13 01 01 02  	addi	sp, sp, 0x20
80200318: 67 80 00 00  	ret

8020031c <uart_printf>:
8020031c: 13 01 01 f9  	addi	sp, sp, -0x70
80200320: 23 26 11 04  	sw	ra, 0x4c(sp)
80200324: 23 24 81 04  	sw	s0, 0x48(sp)
80200328: 23 22 21 05  	sw	s2, 0x44(sp)
8020032c: 23 20 31 05  	sw	s3, 0x40(sp)
80200330: 23 2e 41 03  	sw	s4, 0x3c(sp)
80200334: 23 2c 51 03  	sw	s5, 0x38(sp)
80200338: 23 2a 61 03  	sw	s6, 0x34(sp)
8020033c: 23 28 71 03  	sw	s7, 0x30(sp)
80200340: 13 04 01 05  	addi	s0, sp, 0x50
80200344: 23 2e a4 fa  	sw	a0, -0x44(s0)
80200348: 23 22 b4 00  	sw	a1, 0x4(s0)
8020034c: 23 24 c4 00  	sw	a2, 0x8(s0)
80200350: 23 26 d4 00  	sw	a3, 0xc(s0)
80200354: 23 28 e4 00  	sw	a4, 0x10(s0)
80200358: 23 2a f4 00  	sw	a5, 0x14(s0)
8020035c: 23 2c 04 01  	sw	a6, 0x18(s0)
80200360: 23 2e 14 01  	sw	a7, 0x1c(s0)
80200364: 93 07 04 02  	addi	a5, s0, 0x20
80200368: 23 2c f4 fa  	sw	a5, -0x48(s0)
8020036c: 83 27 84 fb  	lw	a5, -0x48(s0)
80200370: 93 87 47 fe  	addi	a5, a5, -0x1c
80200374: 23 26 f4 fc  	sw	a5, -0x34(s0)
80200378: 6f 00 80 29  	j	0x80200610 <uart_printf+0x2f4>
8020037c: 83 27 c4 fb  	lw	a5, -0x44(s0)
80200380: 03 c7 07 00  	lbu	a4, 0x0(a5)
80200384: 93 07 50 02  	li	a5, 0x25
80200388: 63 0e f7 02  	beq	a4, a5, 0x802003c4 <uart_printf+0xa8>
8020038c: 83 27 c4 fb  	lw	a5, -0x44(s0)
80200390: 83 c7 07 00  	lbu	a5, 0x0(a5)
80200394: 13 85 07 00  	mv	a0, a5
80200398: ef f0 9f ef  	jal	0x80200290 <uart_putchar>
8020039c: 83 27 c4 fb  	lw	a5, -0x44(s0)
802003a0: 03 c7 07 00  	lbu	a4, 0x0(a5)
802003a4: 93 07 a0 00  	li	a5, 0xa
802003a8: 63 16 f7 00  	bne	a4, a5, 0x802003b4 <uart_printf+0x98>
802003ac: 13 05 d0 00  	li	a0, 0xd
802003b0: ef f0 1f ee  	jal	0x80200290 <uart_putchar>
802003b4: 83 27 c4 fb  	lw	a5, -0x44(s0)
802003b8: 93 87 17 00  	addi	a5, a5, 0x1
802003bc: 23 2e f4 fa  	sw	a5, -0x44(s0)
802003c0: 6f 00 00 25  	j	0x80200610 <uart_printf+0x2f4>
802003c4: 83 27 c4 fb  	lw	a5, -0x44(s0)
802003c8: 93 87 17 00  	addi	a5, a5, 0x1
802003cc: 23 2e f4 fa  	sw	a5, -0x44(s0)
802003d0: 83 27 c4 fb  	lw	a5, -0x44(s0)
802003d4: 83 c7 07 00  	lbu	a5, 0x0(a5)
802003d8: 93 87 d7 f9  	addi	a5, a5, -0x63
802003dc: 13 07 50 01  	li	a4, 0x15
802003e0: 63 6e f7 0c  	bltu	a4, a5, 0x802004bc <uart_printf+0x1a0>
802003e4: 13 97 27 00  	slli	a4, a5, 0x2
802003e8: b7 37 20 80  	lui	a5, 0x80203
802003ec: 93 87 87 ce  	addi	a5, a5, -0x318
802003f0: b3 07 f7 00  	add	a5, a4, a5
802003f4: 83 a7 07 00  	lw	a5, 0x0(a5)
802003f8: 67 80 07 00  	jr	a5
802003fc: 83 27 c4 fc  	lw	a5, -0x34(s0)
80200400: 13 87 47 00  	addi	a4, a5, 0x4
80200404: 23 26 e4 fc  	sw	a4, -0x34(s0)
80200408: 83 a7 07 00  	lw	a5, 0x0(a5)
8020040c: 13 89 07 00  	mv	s2, a5
80200410: 93 d7 f7 41  	srai	a5, a5, 0x1f
80200414: 93 89 07 00  	mv	s3, a5
80200418: 23 20 24 fd  	sw	s2, -0x40(s0)
8020041c: 23 22 34 fd  	sw	s3, -0x3c(s0)
80200420: 6f 00 c0 09  	j	0x802004bc <uart_printf+0x1a0>
80200424: 83 27 c4 fc  	lw	a5, -0x34(s0)
80200428: 13 87 47 00  	addi	a4, a5, 0x4
8020042c: 23 26 e4 fc  	sw	a4, -0x34(s0)
80200430: 83 a7 07 00  	lw	a5, 0x0(a5)
80200434: 13 8a 07 00  	mv	s4, a5
80200438: 93 0a 00 00  	li	s5, 0x0
8020043c: 23 20 44 fd  	sw	s4, -0x40(s0)
80200440: 23 22 54 fd  	sw	s5, -0x3c(s0)
80200444: 6f 00 80 07  	j	0x802004bc <uart_printf+0x1a0>
80200448: 83 27 c4 fc  	lw	a5, -0x34(s0)
8020044c: 13 87 47 00  	addi	a4, a5, 0x4
80200450: 23 26 e4 fc  	sw	a4, -0x34(s0)
80200454: 83 a7 07 00  	lw	a5, 0x0(a5)
80200458: 13 8b 07 00  	mv	s6, a5
8020045c: 93 0b 00 00  	li	s7, 0x0
80200460: 23 20 64 fd  	sw	s6, -0x40(s0)
80200464: 23 22 74 fd  	sw	s7, -0x3c(s0)
80200468: 03 27 04 fc  	lw	a4, -0x40(s0)
8020046c: 83 27 44 fc  	lw	a5, -0x3c(s0)
80200470: 93 77 f7 0f  	andi	a5, a4, 0xff
80200474: 13 85 07 00  	mv	a0, a5
80200478: ef f0 9f e1  	jal	0x80200290 <uart_putchar>
8020047c: 83 27 c4 fb  	lw	a5, -0x44(s0)
80200480: 93 87 17 00  	addi	a5, a5, 0x1
80200484: 23 2e f4 fa  	sw	a5, -0x44(s0)
80200488: 6f 00 80 18  	j	0x80200610 <uart_printf+0x2f4>
8020048c: 83 27 c4 fc  	lw	a5, -0x34(s0)
80200490: 13 87 47 00  	addi	a4, a5, 0x4
80200494: 23 26 e4 fc  	sw	a4, -0x34(s0)
80200498: 83 a7 07 00  	lw	a5, 0x0(a5)
8020049c: 23 20 f4 fc  	sw	a5, -0x40(s0)
802004a0: 83 27 04 fc  	lw	a5, -0x40(s0)
802004a4: 13 85 07 00  	mv	a0, a5
802004a8: ef f0 df e1  	jal	0x802002c4 <uart_prints>
802004ac: 83 27 c4 fb  	lw	a5, -0x44(s0)
802004b0: 93 87 17 00  	addi	a5, a5, 0x1
802004b4: 23 2e f4 fa  	sw	a5, -0x44(s0)
802004b8: 6f 00 80 15  	j	0x80200610 <uart_printf+0x2f4>
802004bc: 03 27 04 fc  	lw	a4, -0x40(s0)
802004c0: 83 27 44 fc  	lw	a5, -0x3c(s0)
802004c4: 23 2e e4 fc  	sw	a4, -0x24(s0)
802004c8: 83 27 c4 fb  	lw	a5, -0x44(s0)
802004cc: 03 c7 07 00  	lbu	a4, 0x0(a5)
802004d0: 93 07 40 06  	li	a5, 0x64
802004d4: 63 16 f7 02  	bne	a4, a5, 0x80200500 <uart_printf+0x1e4>
802004d8: 03 27 04 fc  	lw	a4, -0x40(s0)
802004dc: 83 27 44 fc  	lw	a5, -0x3c(s0)
802004e0: 63 d0 07 02  	bgez	a5, 0x80200500 <uart_printf+0x1e4>
802004e4: 13 05 d0 02  	li	a0, 0x2d
802004e8: ef f0 9f da  	jal	0x80200290 <uart_putchar>
802004ec: 03 27 04 fc  	lw	a4, -0x40(s0)
802004f0: 83 27 44 fc  	lw	a5, -0x3c(s0)
802004f4: 93 07 07 00  	mv	a5, a4
802004f8: b3 07 f0 40  	neg	a5, a5
802004fc: 23 2e f4 fc  	sw	a5, -0x24(s0)
80200500: 83 27 c4 fb  	lw	a5, -0x44(s0)
80200504: 03 c7 07 00  	lbu	a4, 0x0(a5)
80200508: 93 07 80 07  	li	a5, 0x78
8020050c: 63 06 f7 08  	beq	a4, a5, 0x80200598 <uart_printf+0x27c>
80200510: 93 07 10 00  	li	a5, 0x1
80200514: 23 2c f4 fc  	sw	a5, -0x28(s0)
80200518: 6f 00 c0 01  	j	0x80200534 <uart_printf+0x218>
8020051c: 03 27 84 fd  	lw	a4, -0x28(s0)
80200520: 93 07 07 00  	mv	a5, a4
80200524: 93 97 27 00  	slli	a5, a5, 0x2
80200528: b3 87 e7 00  	add	a5, a5, a4
8020052c: 93 97 17 00  	slli	a5, a5, 0x1
80200530: 23 2c f4 fc  	sw	a5, -0x28(s0)
80200534: 03 27 c4 fd  	lw	a4, -0x24(s0)
80200538: 83 27 84 fd  	lw	a5, -0x28(s0)
8020053c: 33 57 f7 02  	divu	a4, a4, a5
80200540: 93 07 90 00  	li	a5, 0x9
80200544: e3 ec e7 fc  	bltu	a5, a4, 0x8020051c <uart_printf+0x200>
80200548: 6f 00 40 04  	j	0x8020058c <uart_printf+0x270>
8020054c: 03 27 c4 fd  	lw	a4, -0x24(s0)
80200550: 83 27 84 fd  	lw	a5, -0x28(s0)
80200554: b3 57 f7 02  	divu	a5, a4, a5
80200558: 93 f7 f7 0f  	andi	a5, a5, 0xff
8020055c: 93 87 07 03  	addi	a5, a5, 0x30
80200560: 93 f7 f7 0f  	andi	a5, a5, 0xff
80200564: 13 85 07 00  	mv	a0, a5
80200568: ef f0 9f d2  	jal	0x80200290 <uart_putchar>
8020056c: 03 27 c4 fd  	lw	a4, -0x24(s0)
80200570: 83 27 84 fd  	lw	a5, -0x28(s0)
80200574: b3 77 f7 02  	remu	a5, a4, a5
80200578: 23 2e f4 fc  	sw	a5, -0x24(s0)
8020057c: 03 27 84 fd  	lw	a4, -0x28(s0)
80200580: 93 07 a0 00  	li	a5, 0xa
80200584: b3 57 f7 02  	divu	a5, a4, a5
80200588: 23 2c f4 fc  	sw	a5, -0x28(s0)
8020058c: 83 27 84 fd  	lw	a5, -0x28(s0)
80200590: e3 9e 07 fa  	bnez	a5, 0x8020054c <uart_printf+0x230>
80200594: 6f 00 00 07  	j	0x80200604 <uart_printf+0x2e8>
80200598: 13 05 00 03  	li	a0, 0x30
8020059c: ef f0 5f cf  	jal	0x80200290 <uart_putchar>
802005a0: 13 05 80 07  	li	a0, 0x78
802005a4: ef f0 df ce  	jal	0x80200290 <uart_putchar>
802005a8: 93 07 f0 00  	li	a5, 0xf
802005ac: 23 28 f4 fc  	sw	a5, -0x30(s0)
802005b0: 93 07 80 00  	li	a5, 0x8
802005b4: a3 0b f4 fc  	sb	a5, -0x29(s0)
802005b8: 6f 00 40 04  	j	0x802005fc <uart_printf+0x2e0>
802005bc: 83 47 74 fd  	lbu	a5, -0x29(s0)
802005c0: 93 87 f7 ff  	addi	a5, a5, -0x1
802005c4: 93 97 27 00  	slli	a5, a5, 0x2
802005c8: 03 27 c4 fd  	lw	a4, -0x24(s0)
802005cc: 33 57 f7 00  	srl	a4, a4, a5
802005d0: 83 27 04 fd  	lw	a5, -0x30(s0)
802005d4: b3 77 f7 00  	and	a5, a4, a5
802005d8: 37 37 20 80  	lui	a4, 0x80203
802005dc: 13 07 87 f0  	addi	a4, a4, -0xf8
802005e0: b3 07 f7 00  	add	a5, a4, a5
802005e4: 83 c7 07 00  	lbu	a5, 0x0(a5)
802005e8: 13 85 07 00  	mv	a0, a5
802005ec: ef f0 5f ca  	jal	0x80200290 <uart_putchar>
802005f0: 83 47 74 fd  	lbu	a5, -0x29(s0)
802005f4: 93 87 f7 ff  	addi	a5, a5, -0x1
802005f8: a3 0b f4 fc  	sb	a5, -0x29(s0)
802005fc: 83 47 74 fd  	lbu	a5, -0x29(s0)
80200600: e3 9e 07 fa  	bnez	a5, 0x802005bc <uart_printf+0x2a0>
80200604: 83 27 c4 fb  	lw	a5, -0x44(s0)
80200608: 93 87 17 00  	addi	a5, a5, 0x1
8020060c: 23 2e f4 fa  	sw	a5, -0x44(s0)
80200610: 83 27 c4 fb  	lw	a5, -0x44(s0)
80200614: 83 c7 07 00  	lbu	a5, 0x0(a5)
80200618: e3 92 07 d6  	bnez	a5, 0x8020037c <uart_printf+0x60>
8020061c: 13 00 00 00  	nop
80200620: 13 00 00 00  	nop
80200624: 83 20 c1 04  	lw	ra, 0x4c(sp)
80200628: 03 24 81 04  	lw	s0, 0x48(sp)
8020062c: 03 29 41 04  	lw	s2, 0x44(sp)
80200630: 83 29 01 04  	lw	s3, 0x40(sp)
80200634: 03 2a c1 03  	lw	s4, 0x3c(sp)
80200638: 83 2a 81 03  	lw	s5, 0x38(sp)
8020063c: 03 2b 41 03  	lw	s6, 0x34(sp)
80200640: 83 2b 01 03  	lw	s7, 0x30(sp)
80200644: 13 01 01 07  	addi	sp, sp, 0x70
80200648: 67 80 00 00  	ret

8020064c <read_csr_mtime>:
8020064c: 13 01 01 fe  	addi	sp, sp, -0x20
80200650: 23 2e 81 00  	sw	s0, 0x1c(sp)
80200654: 13 04 01 02  	addi	s0, sp, 0x20
80200658: 23 26 04 fe  	sw	zero, -0x14(s0)
8020065c: 23 24 04 fe  	sw	zero, -0x18(s0)
80200660: 73 23 10 c0  	rdtime	t1
80200664: 23 26 64 fe  	sw	t1, -0x14(s0)
80200668: 73 23 10 c8  	rdtimeh	t1
8020066c: 23 24 64 fe  	sw	t1, -0x18(s0)
80200670: 03 23 84 fe  	lw	t1, -0x18(s0)
80200674: 13 08 03 00  	mv	a6, t1
80200678: 93 08 00 00  	li	a7, 0x0
8020067c: 93 17 08 00  	slli	a5, a6, 0x0
80200680: 13 07 00 00  	li	a4, 0x0
80200684: 03 28 c4 fe  	lw	a6, -0x14(s0)
80200688: 13 06 08 00  	mv	a2, a6
8020068c: 93 06 00 00  	li	a3, 0x0
80200690: 33 65 c7 00  	or	a0, a4, a2
80200694: b3 e5 d7 00  	or	a1, a5, a3
80200698: 13 07 05 00  	mv	a4, a0
8020069c: 93 87 05 00  	mv	a5, a1
802006a0: 13 05 07 00  	mv	a0, a4
802006a4: 93 85 07 00  	mv	a1, a5
802006a8: 03 24 c1 01  	lw	s0, 0x1c(sp)
802006ac: 13 01 01 02  	addi	sp, sp, 0x20
802006b0: 67 80 00 00  	ret

802006b4 <sbi_ecall>:
802006b4: 13 01 01 fe  	addi	sp, sp, -0x20
802006b8: 23 2e 81 00  	sw	s0, 0x1c(sp)
802006bc: 13 04 01 02  	addi	s0, sp, 0x20
802006c0: 23 26 a4 fe  	sw	a0, -0x14(s0)
802006c4: 23 24 b4 fe  	sw	a1, -0x18(s0)
802006c8: 23 22 c4 fe  	sw	a2, -0x1c(s0)
802006cc: 23 20 d4 fe  	sw	a3, -0x20(s0)
802006d0: 03 25 44 fe  	lw	a0, -0x1c(s0)
802006d4: 83 25 04 fe  	lw	a1, -0x20(s0)
802006d8: 03 28 84 fe  	lw	a6, -0x18(s0)
802006dc: 83 28 c4 fe  	lw	a7, -0x14(s0)
802006e0: 73 00 00 00  	ecall
802006e4: 13 00 00 00  	nop
802006e8: 03 24 c1 01  	lw	s0, 0x1c(sp)
802006ec: 13 01 01 02  	addi	sp, sp, 0x20
802006f0: 67 80 00 00  	ret

802006f4 <sbi_set_timer>:
802006f4: 13 01 01 fc  	addi	sp, sp, -0x40
802006f8: 23 2e 11 02  	sw	ra, 0x3c(sp)
802006fc: 23 2c 81 02  	sw	s0, 0x38(sp)
80200700: 13 04 01 04  	addi	s0, sp, 0x40
80200704: 23 26 a4 fc  	sw	a0, -0x34(s0)
80200708: b7 97 98 00  	lui	a5, 0x989
8020070c: 13 87 07 68  	addi	a4, a5, 0x680
80200710: 83 27 c4 fc  	lw	a5, -0x34(s0)
80200714: b3 57 f7 02  	divu	a5, a4, a5
80200718: 23 26 f4 fe  	sw	a5, -0x14(s0)
8020071c: 83 27 c4 fe  	lw	a5, -0x14(s0)
80200720: 13 86 07 00  	mv	a2, a5
80200724: 93 06 00 00  	li	a3, 0x0
80200728: b7 27 da 80  	lui	a5, 0x80da2
8020072c: 03 a5 07 c6  	lw	a0, -0x3a0(a5)
80200730: 83 a5 47 c6  	lw	a1, -0x39c(a5)
80200734: 33 07 a6 00  	add	a4, a2, a0
80200738: 13 03 07 00  	mv	t1, a4
8020073c: 33 33 c3 00  	sltu	t1, t1, a2
80200740: b3 87 b6 00  	add	a5, a3, a1
80200744: b3 06 f3 00  	add	a3, t1, a5
80200748: 93 87 06 00  	mv	a5, a3
8020074c: 23 20 e4 fe  	sw	a4, -0x20(s0)
80200750: 23 22 f4 fe  	sw	a5, -0x1c(s0)
80200754: 83 27 04 fe  	lw	a5, -0x20(s0)
80200758: 23 2e f4 fc  	sw	a5, -0x24(s0)
8020075c: 83 27 44 fe  	lw	a5, -0x1c(s0)
80200760: 13 d8 07 00  	srli	a6, a5, 0x0
80200764: 93 08 00 00  	li	a7, 0x0
80200768: 23 2c 04 fd  	sw	a6, -0x28(s0)
8020076c: 83 26 84 fd  	lw	a3, -0x28(s0)
80200770: 03 26 c4 fd  	lw	a2, -0x24(s0)
80200774: 93 05 00 00  	li	a1, 0x0
80200778: b7 57 49 54  	lui	a5, 0x54495
8020077c: 13 85 57 d4  	addi	a0, a5, -0x2bb
80200780: ef f0 5f f3  	jal	0x802006b4 <sbi_ecall>
80200784: 13 00 00 00  	nop
80200788: 83 20 c1 03  	lw	ra, 0x3c(sp)
8020078c: 03 24 81 03  	lw	s0, 0x38(sp)
80200790: 13 01 01 04  	addi	sp, sp, 0x40
80200794: 67 80 00 00  	ret

80200798 <get_mtime>:
80200798: 13 01 01 ff  	addi	sp, sp, -0x10
8020079c: 23 26 11 00  	sw	ra, 0xc(sp)
802007a0: 23 24 81 00  	sw	s0, 0x8(sp)
802007a4: 13 04 01 01  	addi	s0, sp, 0x10
802007a8: ef f0 5f ea  	jal	0x8020064c <read_csr_mtime>
802007ac: 13 07 05 00  	mv	a4, a0
802007b0: 93 87 05 00  	mv	a5, a1
802007b4: b7 26 da 80  	lui	a3, 0x80da2
802007b8: 23 a0 e6 c6  	sw	a4, -0x3a0(a3)
802007bc: 23 a2 f6 c6  	sw	a5, -0x39c(a3)
802007c0: 13 00 00 00  	nop
802007c4: 83 20 c1 00  	lw	ra, 0xc(sp)
802007c8: 03 24 81 00  	lw	s0, 0x8(sp)
802007cc: 13 01 01 01  	addi	sp, sp, 0x10
802007d0: 67 80 00 00  	ret

802007d4 <set_mtimecmp>:
802007d4: 13 01 01 fe  	addi	sp, sp, -0x20
802007d8: 23 2e 11 00  	sw	ra, 0x1c(sp)
802007dc: 23 2c 81 00  	sw	s0, 0x18(sp)
802007e0: 13 04 01 02  	addi	s0, sp, 0x20
802007e4: 23 26 a4 fe  	sw	a0, -0x14(s0)
802007e8: 03 25 c4 fe  	lw	a0, -0x14(s0)
802007ec: ef f0 9f f0  	jal	0x802006f4 <sbi_set_timer>
802007f0: 13 00 00 00  	nop
802007f4: 83 20 c1 01  	lw	ra, 0x1c(sp)
802007f8: 03 24 81 01  	lw	s0, 0x18(sp)
802007fc: 13 01 01 02  	addi	sp, sp, 0x20
80200800: 67 80 00 00  	ret

80200804 <print_ticks>:
80200804: 13 01 01 ff  	addi	sp, sp, -0x10
80200808: 23 26 11 00  	sw	ra, 0xc(sp)
8020080c: 23 24 81 00  	sw	s0, 0x8(sp)
80200810: 13 04 01 01  	addi	s0, sp, 0x10
80200814: b7 27 da 80  	lui	a5, 0x80da2
80200818: 03 a7 87 c6  	lw	a4, -0x398(a5)
8020081c: 83 a7 c7 c6  	lw	a5, -0x394(a5)
80200820: 93 07 07 00  	mv	a5, a4
80200824: 93 85 07 00  	mv	a1, a5
80200828: b7 37 20 80  	lui	a5, 0x80203
8020082c: 13 85 07 d4  	addi	a0, a5, -0x2c0
80200830: ef f0 df ae  	jal	0x8020031c <uart_printf>
80200834: 13 00 00 00  	nop
80200838: 83 20 c1 00  	lw	ra, 0xc(sp)
8020083c: 03 24 81 00  	lw	s0, 0x8(sp)
80200840: 13 01 01 01  	addi	sp, sp, 0x10
80200844: 67 80 00 00  	ret

80200848 <reset_all_plic_source_pry>:
80200848: 13 01 01 fe  	addi	sp, sp, -0x20
8020084c: 23 2e 81 00  	sw	s0, 0x1c(sp)
80200850: 13 04 01 02  	addi	s0, sp, 0x20
80200854: 23 17 04 fe  	sh	zero, -0x12(s0)
80200858: 6f 00 40 02  	j	0x8020087c <reset_all_plic_source_pry+0x34>
8020085c: b7 37 20 80  	lui	a5, 0x80203
80200860: 03 a7 47 f2  	lw	a4, -0xdc(a5)
80200864: 83 57 e4 fe  	lhu	a5, -0x12(s0)
80200868: b3 07 f7 00  	add	a5, a4, a5
8020086c: 23 a0 07 00  	sw	zero, 0x0(a5)
80200870: 83 57 e4 fe  	lhu	a5, -0x12(s0)
80200874: 93 87 47 00  	addi	a5, a5, 0x4
80200878: 23 17 f4 fe  	sh	a5, -0x12(s0)
8020087c: 03 57 e4 fe  	lhu	a4, -0x12(s0)
80200880: b7 17 00 00  	lui	a5, 0x1
80200884: e3 6c f7 fc  	bltu	a4, a5, 0x8020085c <reset_all_plic_source_pry+0x14>
80200888: 13 00 00 00  	nop
8020088c: 13 00 00 00  	nop
80200890: 03 24 c1 01  	lw	s0, 0x1c(sp)
80200894: 13 01 01 02  	addi	sp, sp, 0x20
80200898: 67 80 00 00  	ret

8020089c <reset_plic_source_pry>:
8020089c: 13 01 01 fe  	addi	sp, sp, -0x20
802008a0: 23 2e 81 00  	sw	s0, 0x1c(sp)
802008a4: 13 04 01 02  	addi	s0, sp, 0x20
802008a8: 93 07 05 00  	mv	a5, a0
802008ac: 23 17 f4 fe  	sh	a5, -0x12(s0)
802008b0: b7 37 20 80  	lui	a5, 0x80203
802008b4: 83 a7 47 f2  	lw	a5, -0xdc(a5)
802008b8: 03 57 e4 fe  	lhu	a4, -0x12(s0)
802008bc: 13 17 27 00  	slli	a4, a4, 0x2
802008c0: b3 87 e7 00  	add	a5, a5, a4
802008c4: 23 a0 07 00  	sw	zero, 0x0(a5)
802008c8: 13 00 00 00  	nop
802008cc: 03 24 c1 01  	lw	s0, 0x1c(sp)
802008d0: 13 01 01 02  	addi	sp, sp, 0x20
802008d4: 67 80 00 00  	ret

802008d8 <set_plic_source_pry>:
802008d8: 13 01 01 fe  	addi	sp, sp, -0x20
802008dc: 23 2e 81 00  	sw	s0, 0x1c(sp)
802008e0: 13 04 01 02  	addi	s0, sp, 0x20
802008e4: 93 07 05 00  	mv	a5, a0
802008e8: 23 24 b4 fe  	sw	a1, -0x18(s0)
802008ec: 23 17 f4 fe  	sh	a5, -0x12(s0)
802008f0: b7 37 20 80  	lui	a5, 0x80203
802008f4: 83 a7 47 f2  	lw	a5, -0xdc(a5)
802008f8: 03 57 e4 fe  	lhu	a4, -0x12(s0)
802008fc: 13 17 27 00  	slli	a4, a4, 0x2
80200900: b3 87 e7 00  	add	a5, a5, a4
80200904: 03 27 84 fe  	lw	a4, -0x18(s0)
80200908: 13 77 77 00  	andi	a4, a4, 0x7
8020090c: 23 a0 e7 00  	sw	a4, 0x0(a5)
80200910: 13 00 00 00  	nop
80200914: 03 24 c1 01  	lw	s0, 0x1c(sp)
80200918: 13 01 01 02  	addi	sp, sp, 0x20
8020091c: 67 80 00 00  	ret

80200920 <reset_all_plic_int_en>:
80200920: 13 01 01 fd  	addi	sp, sp, -0x30
80200924: 23 26 81 02  	sw	s0, 0x2c(sp)
80200928: 13 04 01 03  	addi	s0, sp, 0x30
8020092c: 23 2e a4 fc  	sw	a0, -0x24(s0)
80200930: 23 26 04 fe  	sw	zero, -0x14(s0)
80200934: 6f 00 c0 02  	j	0x80200960 <reset_all_plic_int_en+0x40>
80200938: b7 37 20 80  	lui	a5, 0x80203
8020093c: 03 a7 47 f2  	lw	a4, -0xdc(a5)
80200940: 83 26 c4 fd  	lw	a3, -0x24(s0)
80200944: 83 27 c4 fe  	lw	a5, -0x14(s0)
80200948: b3 87 f6 00  	add	a5, a3, a5
8020094c: b3 07 f7 00  	add	a5, a4, a5
80200950: 23 a0 07 00  	sw	zero, 0x0(a5)
80200954: 83 27 c4 fe  	lw	a5, -0x14(s0)
80200958: 93 87 47 00  	addi	a5, a5, 0x4
8020095c: 23 26 f4 fe  	sw	a5, -0x14(s0)
80200960: 03 27 c4 fe  	lw	a4, -0x14(s0)
80200964: 93 07 f0 07  	li	a5, 0x7f
80200968: e3 f8 e7 fc  	bgeu	a5, a4, 0x80200938 <reset_all_plic_int_en+0x18>
8020096c: 13 00 00 00  	nop
80200970: 13 00 00 00  	nop
80200974: 03 24 c1 02  	lw	s0, 0x2c(sp)
80200978: 13 01 01 03  	addi	sp, sp, 0x30
8020097c: 67 80 00 00  	ret

80200980 <set_plic_source_int_en>:
80200980: 13 01 01 fe  	addi	sp, sp, -0x20
80200984: 23 2e 81 00  	sw	s0, 0x1c(sp)
80200988: 13 04 01 02  	addi	s0, sp, 0x20
8020098c: 23 26 a4 fe  	sw	a0, -0x14(s0)
80200990: 93 87 05 00  	mv	a5, a1
80200994: 23 15 f4 fe  	sh	a5, -0x16(s0)
80200998: b7 37 20 80  	lui	a5, 0x80203
8020099c: 03 a7 47 f2  	lw	a4, -0xdc(a5)
802009a0: 83 57 a4 fe  	lhu	a5, -0x16(s0)
802009a4: 93 d7 57 00  	srli	a5, a5, 0x5
802009a8: 93 95 07 01  	slli	a1, a5, 0x10
802009ac: 93 d5 05 01  	srli	a1, a1, 0x10
802009b0: 93 86 05 00  	mv	a3, a1
802009b4: 83 27 c4 fe  	lw	a5, -0x14(s0)
802009b8: b3 87 f6 00  	add	a5, a3, a5
802009bc: b3 07 f7 00  	add	a5, a4, a5
802009c0: 83 a6 07 00  	lw	a3, 0x0(a5)
802009c4: 83 57 a4 fe  	lhu	a5, -0x16(s0)
802009c8: 93 f7 f7 01  	andi	a5, a5, 0x1f
802009cc: 13 07 10 00  	li	a4, 0x1
802009d0: 33 17 f7 00  	sll	a4, a4, a5
802009d4: b7 37 20 80  	lui	a5, 0x80203
802009d8: 03 a6 47 f2  	lw	a2, -0xdc(a5)
802009dc: 83 27 c4 fe  	lw	a5, -0x14(s0)
802009e0: b3 87 f5 00  	add	a5, a1, a5
802009e4: b3 07 f6 00  	add	a5, a2, a5
802009e8: 33 e7 e6 00  	or	a4, a3, a4
802009ec: 23 a0 e7 00  	sw	a4, 0x0(a5)
802009f0: 13 00 00 00  	nop
802009f4: 03 24 c1 01  	lw	s0, 0x1c(sp)
802009f8: 13 01 01 02  	addi	sp, sp, 0x20
802009fc: 67 80 00 00  	ret

80200a00 <reset_plic_pry_trsh>:
80200a00: 13 01 01 fe  	addi	sp, sp, -0x20
80200a04: 23 2e 81 00  	sw	s0, 0x1c(sp)
80200a08: 13 04 01 02  	addi	s0, sp, 0x20
80200a0c: 23 26 a4 fe  	sw	a0, -0x14(s0)
80200a10: b7 37 20 80  	lui	a5, 0x80203
80200a14: 03 a7 47 f2  	lw	a4, -0xdc(a5)
80200a18: 83 27 c4 fe  	lw	a5, -0x14(s0)
80200a1c: b3 07 f7 00  	add	a5, a4, a5
80200a20: 23 a0 07 00  	sw	zero, 0x0(a5)
80200a24: 13 00 00 00  	nop
80200a28: 03 24 c1 01  	lw	s0, 0x1c(sp)
80200a2c: 13 01 01 02  	addi	sp, sp, 0x20
80200a30: 67 80 00 00  	ret

80200a34 <set_plic_pry_trsh>:
80200a34: 13 01 01 fe  	addi	sp, sp, -0x20
80200a38: 23 2e 81 00  	sw	s0, 0x1c(sp)
80200a3c: 13 04 01 02  	addi	s0, sp, 0x20
80200a40: 23 26 a4 fe  	sw	a0, -0x14(s0)
80200a44: 23 24 b4 fe  	sw	a1, -0x18(s0)
80200a48: b7 37 20 80  	lui	a5, 0x80203
80200a4c: 03 a7 47 f2  	lw	a4, -0xdc(a5)
80200a50: 83 27 c4 fe  	lw	a5, -0x14(s0)
80200a54: b3 07 f7 00  	add	a5, a4, a5
80200a58: 03 27 84 fe  	lw	a4, -0x18(s0)
80200a5c: 13 77 77 00  	andi	a4, a4, 0x7
80200a60: 23 a0 e7 00  	sw	a4, 0x0(a5)
80200a64: 13 00 00 00  	nop
80200a68: 03 24 c1 01  	lw	s0, 0x1c(sp)
80200a6c: 13 01 01 02  	addi	sp, sp, 0x20
80200a70: 67 80 00 00  	ret

80200a74 <read_claim_plic_int_msg>:
80200a74: 13 01 01 fe  	addi	sp, sp, -0x20
80200a78: 23 2e 81 00  	sw	s0, 0x1c(sp)
80200a7c: 13 04 01 02  	addi	s0, sp, 0x20
80200a80: 23 26 a4 fe  	sw	a0, -0x14(s0)
80200a84: b7 37 20 80  	lui	a5, 0x80203
80200a88: 03 a7 47 f2  	lw	a4, -0xdc(a5)
80200a8c: 83 27 c4 fe  	lw	a5, -0x14(s0)
80200a90: b3 07 f7 00  	add	a5, a4, a5
80200a94: 83 a7 07 00  	lw	a5, 0x0(a5)
80200a98: 13 85 07 00  	mv	a0, a5
80200a9c: 03 24 c1 01  	lw	s0, 0x1c(sp)
80200aa0: 13 01 01 02  	addi	sp, sp, 0x20
80200aa4: 67 80 00 00  	ret

80200aa8 <send_complete_plic_int_ID>:
80200aa8: 13 01 01 fe  	addi	sp, sp, -0x20
80200aac: 23 2e 81 00  	sw	s0, 0x1c(sp)
80200ab0: 13 04 01 02  	addi	s0, sp, 0x20
80200ab4: 23 26 a4 fe  	sw	a0, -0x14(s0)
80200ab8: 23 24 b4 fe  	sw	a1, -0x18(s0)
80200abc: b7 37 20 80  	lui	a5, 0x80203
80200ac0: 03 a7 47 f2  	lw	a4, -0xdc(a5)
80200ac4: 83 27 c4 fe  	lw	a5, -0x14(s0)
80200ac8: b3 07 f7 00  	add	a5, a4, a5
80200acc: 03 27 84 fe  	lw	a4, -0x18(s0)
80200ad0: 23 a0 e7 00  	sw	a4, 0x0(a5)
80200ad4: 13 00 00 00  	nop
80200ad8: 03 24 c1 01  	lw	s0, 0x1c(sp)
80200adc: 13 01 01 02  	addi	sp, sp, 0x20
80200ae0: 67 80 00 00  	ret

80200ae4 <strncpy>:
80200ae4: 13 01 01 fd  	addi	sp, sp, -0x30
80200ae8: 23 26 81 02  	sw	s0, 0x2c(sp)
80200aec: 13 04 01 03  	addi	s0, sp, 0x30
80200af0: 23 2e a4 fc  	sw	a0, -0x24(s0)
80200af4: 23 2c b4 fc  	sw	a1, -0x28(s0)
80200af8: 23 2a c4 fc  	sw	a2, -0x2c(s0)
80200afc: 23 26 04 fe  	sw	zero, -0x14(s0)
80200b00: 83 27 c4 fd  	lw	a5, -0x24(s0)
80200b04: 23 80 07 00  	sb	zero, 0x0(a5)
80200b08: 23 24 04 fe  	sw	zero, -0x18(s0)
80200b0c: 6f 00 00 05  	j	0x80200b5c <strncpy+0x78>
80200b10: 03 27 84 fd  	lw	a4, -0x28(s0)
80200b14: 83 27 84 fe  	lw	a5, -0x18(s0)
80200b18: 33 07 f7 00  	add	a4, a4, a5
80200b1c: 83 26 c4 fd  	lw	a3, -0x24(s0)
80200b20: 83 27 84 fe  	lw	a5, -0x18(s0)
80200b24: b3 87 f6 00  	add	a5, a3, a5
80200b28: 03 47 07 00  	lbu	a4, 0x0(a4)
80200b2c: 23 80 e7 00  	sb	a4, 0x0(a5)
80200b30: 83 27 c4 fe  	lw	a5, -0x14(s0)
80200b34: 93 87 17 00  	addi	a5, a5, 0x1
80200b38: 23 26 f4 fe  	sw	a5, -0x14(s0)
80200b3c: 03 27 84 fd  	lw	a4, -0x28(s0)
80200b40: 83 27 84 fe  	lw	a5, -0x18(s0)
80200b44: b3 07 f7 00  	add	a5, a4, a5
80200b48: 83 c7 07 00  	lbu	a5, 0x0(a5)
80200b4c: 63 80 07 02  	beqz	a5, 0x80200b6c <strncpy+0x88>
80200b50: 83 27 84 fe  	lw	a5, -0x18(s0)
80200b54: 93 87 17 00  	addi	a5, a5, 0x1
80200b58: 23 24 f4 fe  	sw	a5, -0x18(s0)
80200b5c: 03 27 84 fe  	lw	a4, -0x18(s0)
80200b60: 83 27 44 fd  	lw	a5, -0x2c(s0)
80200b64: e3 f6 e7 fa  	bgeu	a5, a4, 0x80200b10 <strncpy+0x2c>
80200b68: 6f 00 80 00  	j	0x80200b70 <strncpy+0x8c>
80200b6c: 13 00 00 00  	nop
80200b70: 03 27 c4 fd  	lw	a4, -0x24(s0)
80200b74: 83 27 84 fe  	lw	a5, -0x18(s0)
80200b78: b3 07 f7 00  	add	a5, a4, a5
80200b7c: 23 80 07 00  	sb	zero, 0x0(a5)
80200b80: 83 27 c4 fe  	lw	a5, -0x14(s0)
80200b84: 13 85 07 00  	mv	a0, a5
80200b88: 03 24 c1 02  	lw	s0, 0x2c(sp)
80200b8c: 13 01 01 03  	addi	sp, sp, 0x30
80200b90: 67 80 00 00  	ret

80200b94 <strncmp>:
80200b94: 13 01 01 fd  	addi	sp, sp, -0x30
80200b98: 23 26 81 02  	sw	s0, 0x2c(sp)
80200b9c: 13 04 01 03  	addi	s0, sp, 0x30
80200ba0: 23 2e a4 fc  	sw	a0, -0x24(s0)
80200ba4: 23 2c b4 fc  	sw	a1, -0x28(s0)
80200ba8: 23 2a c4 fc  	sw	a2, -0x2c(s0)
80200bac: 23 26 04 fe  	sw	zero, -0x14(s0)
80200bb0: 6f 00 c0 03  	j	0x80200bec <strncmp+0x58>
80200bb4: 03 27 c4 fd  	lw	a4, -0x24(s0)
80200bb8: 83 27 c4 fe  	lw	a5, -0x14(s0)
80200bbc: b3 07 f7 00  	add	a5, a4, a5
80200bc0: 03 c7 07 00  	lbu	a4, 0x0(a5)
80200bc4: 83 26 84 fd  	lw	a3, -0x28(s0)
80200bc8: 83 27 c4 fe  	lw	a5, -0x14(s0)
80200bcc: b3 87 f6 00  	add	a5, a3, a5
80200bd0: 83 c7 07 00  	lbu	a5, 0x0(a5)
80200bd4: 63 06 f7 00  	beq	a4, a5, 0x80200be0 <strncmp+0x4c>
80200bd8: 93 07 00 00  	li	a5, 0x0
80200bdc: 6f 00 00 02  	j	0x80200bfc <strncmp+0x68>
80200be0: 83 27 c4 fe  	lw	a5, -0x14(s0)
80200be4: 93 87 17 00  	addi	a5, a5, 0x1
80200be8: 23 26 f4 fe  	sw	a5, -0x14(s0)
80200bec: 03 27 c4 fe  	lw	a4, -0x14(s0)
80200bf0: 83 27 44 fd  	lw	a5, -0x2c(s0)
80200bf4: e3 60 f7 fc  	bltu	a4, a5, 0x80200bb4 <strncmp+0x20>
80200bf8: 93 07 10 00  	li	a5, 0x1
80200bfc: 13 85 07 00  	mv	a0, a5
80200c00: 03 24 c1 02  	lw	s0, 0x2c(sp)
80200c04: 13 01 01 03  	addi	sp, sp, 0x30
80200c08: 67 80 00 00  	ret

80200c0c <read_csr_sepc>:
80200c0c: 13 01 01 fe  	addi	sp, sp, -0x20
80200c10: 23 2e 81 00  	sw	s0, 0x1c(sp)
80200c14: 13 04 01 02  	addi	s0, sp, 0x20
80200c18: 23 26 04 fe  	sw	zero, -0x14(s0)
80200c1c: f3 27 10 14  	csrr	a5, sepc
80200c20: 23 26 f4 fe  	sw	a5, -0x14(s0)
80200c24: 83 27 c4 fe  	lw	a5, -0x14(s0)
80200c28: 13 85 07 00  	mv	a0, a5
80200c2c: 03 24 c1 01  	lw	s0, 0x1c(sp)
80200c30: 13 01 01 02  	addi	sp, sp, 0x20
80200c34: 67 80 00 00  	ret

80200c38 <write_csr_sepc>:
80200c38: 13 01 01 fe  	addi	sp, sp, -0x20
80200c3c: 23 2e 81 00  	sw	s0, 0x1c(sp)
80200c40: 13 04 01 02  	addi	s0, sp, 0x20
80200c44: 23 26 a4 fe  	sw	a0, -0x14(s0)
80200c48: 83 27 c4 fe  	lw	a5, -0x14(s0)
80200c4c: 73 90 17 14  	csrw	sepc, a5
80200c50: 13 00 00 00  	nop
80200c54: 03 24 c1 01  	lw	s0, 0x1c(sp)
80200c58: 13 01 01 02  	addi	sp, sp, 0x20
80200c5c: 67 80 00 00  	ret

80200c60 <move_sp_to_temp>:
80200c60: 13 05 01 00  	mv	a0, sp
80200c64: 13 00 00 00  	nop

80200c68 <read_a0>:
80200c68: 13 01 01 fe  	addi	sp, sp, -0x20
80200c6c: 23 2e 81 00  	sw	s0, 0x1c(sp)
80200c70: 13 04 01 02  	addi	s0, sp, 0x20
80200c74: 23 26 04 fe  	sw	zero, -0x14(s0)
80200c78: 93 07 05 00  	mv	a5, a0
80200c7c: 23 26 f4 fe  	sw	a5, -0x14(s0)
80200c80: 83 27 c4 fe  	lw	a5, -0x14(s0)
80200c84: 13 85 07 00  	mv	a0, a5
80200c88: 03 24 c1 01  	lw	s0, 0x1c(sp)
80200c8c: 13 01 01 02  	addi	sp, sp, 0x20
80200c90: 67 80 00 00  	ret

80200c94 <read_s0>:
80200c94: 13 01 01 fe  	addi	sp, sp, -0x20
80200c98: 23 2e 81 00  	sw	s0, 0x1c(sp)
80200c9c: 13 04 01 02  	addi	s0, sp, 0x20
80200ca0: 23 26 04 fe  	sw	zero, -0x14(s0)
80200ca4: 93 07 04 00  	mv	a5, s0
80200ca8: 23 26 f4 fe  	sw	a5, -0x14(s0)
80200cac: 83 27 c4 fe  	lw	a5, -0x14(s0)
80200cb0: 13 85 07 00  	mv	a0, a5
80200cb4: 03 24 c1 01  	lw	s0, 0x1c(sp)
80200cb8: 13 01 01 02  	addi	sp, sp, 0x20
80200cbc: 67 80 00 00  	ret

80200cc0 <get_new_id>:
80200cc0: 13 01 01 fd  	addi	sp, sp, -0x30
80200cc4: 23 26 81 02  	sw	s0, 0x2c(sp)
80200cc8: 13 04 01 03  	addi	s0, sp, 0x30
80200ccc: 93 07 05 00  	mv	a5, a0
80200cd0: a3 0f f4 fc  	sb	a5, -0x21(s0)
80200cd4: a3 07 04 fe  	sb	zero, -0x11(s0)
80200cd8: 93 07 10 00  	li	a5, 0x1
80200cdc: 23 07 f4 fe  	sb	a5, -0x12(s0)
80200ce0: a3 07 04 fe  	sb	zero, -0x11(s0)
80200ce4: a3 06 04 fe  	sb	zero, -0x13(s0)
80200ce8: 6f 00 c0 07  	j	0x80200d64 <get_new_id+0xa4>
80200cec: 83 46 d4 fe  	lbu	a3, -0x13(s0)
80200cf0: b7 07 30 80  	lui	a5, 0x80300
80200cf4: 13 87 07 00  	mv	a4, a5
80200cf8: b7 47 0f 00  	lui	a5, 0xf4
80200cfc: 93 87 c7 34  	addi	a5, a5, 0x34c
80200d00: b3 87 f6 02  	mul	a5, a3, a5
80200d04: b3 07 f7 00  	add	a5, a4, a5
80200d08: 37 47 0f 00  	lui	a4, 0xf4
80200d0c: b3 07 f7 00  	add	a5, a4, a5
80200d10: 03 a7 47 34  	lw	a4, 0x344(a5)
80200d14: 93 07 10 00  	li	a5, 0x1
80200d18: 63 10 f7 04  	bne	a4, a5, 0x80200d58 <get_new_id+0x98>
80200d1c: 83 46 d4 fe  	lbu	a3, -0x13(s0)
80200d20: b7 07 30 80  	lui	a5, 0x80300
80200d24: 13 87 07 00  	mv	a4, a5
80200d28: b7 47 0f 00  	lui	a5, 0xf4
80200d2c: 93 87 c7 34  	addi	a5, a5, 0x34c
80200d30: b3 87 f6 02  	mul	a5, a3, a5
80200d34: b3 07 f7 00  	add	a5, a4, a5
80200d38: 37 47 0f 00  	lui	a4, 0xf4
80200d3c: b3 07 f7 00  	add	a5, a4, a5
80200d40: 83 c7 87 34  	lbu	a5, 0x348(a5)
80200d44: 03 47 f4 fd  	lbu	a4, -0x21(s0)
80200d48: 63 18 f7 00  	bne	a4, a5, 0x80200d58 <get_new_id+0x98>
80200d4c: 93 07 10 00  	li	a5, 0x1
80200d50: a3 07 f4 fe  	sb	a5, -0x11(s0)
80200d54: 6f 00 c0 01  	j	0x80200d70 <get_new_id+0xb0>
80200d58: 83 47 d4 fe  	lbu	a5, -0x13(s0)
80200d5c: 93 87 17 00  	addi	a5, a5, 0x1
80200d60: a3 06 f4 fe  	sb	a5, -0x13(s0)
80200d64: 03 47 d4 fe  	lbu	a4, -0x13(s0)
80200d68: 93 07 70 00  	li	a5, 0x7
80200d6c: e3 f0 e7 f8  	bgeu	a5, a4, 0x80200cec <get_new_id+0x2c>
80200d70: 83 47 f4 fe  	lbu	a5, -0x11(s0)
80200d74: 63 96 07 00  	bnez	a5, 0x80200d80 <get_new_id+0xc0>
80200d78: 83 47 e4 fe  	lbu	a5, -0x12(s0)
80200d7c: 6f 00 40 01  	j	0x80200d90 <get_new_id+0xd0>
80200d80: 83 47 e4 fe  	lbu	a5, -0x12(s0)
80200d84: 93 87 17 00  	addi	a5, a5, 0x1
80200d88: 23 07 f4 fe  	sb	a5, -0x12(s0)
80200d8c: 6f f0 5f f5  	j	0x80200ce0 <get_new_id+0x20>
80200d90: 13 85 07 00  	mv	a0, a5
80200d94: 03 24 c1 02  	lw	s0, 0x2c(sp)
80200d98: 13 01 01 03  	addi	sp, sp, 0x30
80200d9c: 67 80 00 00  	ret

80200da0 <initialize_processes>:
80200da0: 13 01 01 fe  	addi	sp, sp, -0x20
80200da4: 23 2e 11 00  	sw	ra, 0x1c(sp)
80200da8: 23 2c 81 00  	sw	s0, 0x18(sp)
80200dac: 13 04 01 02  	addi	s0, sp, 0x20
80200db0: a3 07 04 fe  	sb	zero, -0x11(s0)
80200db4: 6f 00 40 1c  	j	0x80200f78 <initialize_processes+0x1d8>
80200db8: 83 46 f4 fe  	lbu	a3, -0x11(s0)
80200dbc: b7 07 30 80  	lui	a5, 0x80300
80200dc0: 13 87 07 00  	mv	a4, a5
80200dc4: b7 47 0f 00  	lui	a5, 0xf4
80200dc8: 93 87 c7 34  	addi	a5, a5, 0x34c
80200dcc: b3 87 f6 02  	mul	a5, a3, a5
80200dd0: b3 07 f7 00  	add	a5, a4, a5
80200dd4: 37 47 0f 00  	lui	a4, 0xf4
80200dd8: b3 07 f7 00  	add	a5, a4, a5
80200ddc: 23 84 07 34  	sb	zero, 0x348(a5)
80200de0: 83 46 f4 fe  	lbu	a3, -0x11(s0)
80200de4: b7 07 30 80  	lui	a5, 0x80300
80200de8: 13 87 07 00  	mv	a4, a5
80200dec: b7 47 0f 00  	lui	a5, 0xf4
80200df0: 93 87 c7 34  	addi	a5, a5, 0x34c
80200df4: b3 87 f6 02  	mul	a5, a3, a5
80200df8: b3 07 f7 00  	add	a5, a4, a5
80200dfc: 37 47 0f 00  	lui	a4, 0xf4
80200e00: b3 07 f7 00  	add	a5, a4, a5
80200e04: a3 84 07 34  	sb	zero, 0x349(a5)
80200e08: 83 46 f4 fe  	lbu	a3, -0x11(s0)
80200e0c: b7 07 30 80  	lui	a5, 0x80300
80200e10: 13 87 07 00  	mv	a4, a5
80200e14: b7 47 0f 00  	lui	a5, 0xf4
80200e18: 93 87 c7 34  	addi	a5, a5, 0x34c
80200e1c: b3 87 f6 02  	mul	a5, a3, a5
80200e20: b3 07 f7 00  	add	a5, a4, a5
80200e24: 37 47 0f 00  	lui	a4, 0xf4
80200e28: b3 07 f7 00  	add	a5, a4, a5
80200e2c: 23 a2 07 34  	sw	zero, 0x344(a5)
80200e30: 03 47 f4 fe  	lbu	a4, -0x11(s0)
80200e34: b7 47 0f 00  	lui	a5, 0xf4
80200e38: 93 87 c7 34  	addi	a5, a5, 0x34c
80200e3c: 33 07 f7 02  	mul	a4, a4, a5
80200e40: b7 47 0f 00  	lui	a5, 0xf4
80200e44: 93 87 07 2c  	addi	a5, a5, 0x2c0
80200e48: 33 07 f7 00  	add	a4, a4, a5
80200e4c: b7 07 30 80  	lui	a5, 0x80300
80200e50: 93 87 07 00  	mv	a5, a5
80200e54: b3 07 f7 00  	add	a5, a4, a5
80200e58: 13 87 47 00  	addi	a4, a5, 0x4
80200e5c: 13 06 10 00  	li	a2, 0x1
80200e60: b7 37 20 80  	lui	a5, 0x80203
80200e64: 93 85 07 d6  	addi	a1, a5, -0x2a0
80200e68: 13 05 07 00  	mv	a0, a4
80200e6c: ef f0 9f c7  	jal	0x80200ae4 <strncpy>
80200e70: 23 07 04 fe  	sb	zero, -0x12(s0)
80200e74: 6f 00 80 04  	j	0x80200ebc <initialize_processes+0x11c>
80200e78: 03 46 f4 fe  	lbu	a2, -0x11(s0)
80200e7c: 83 47 e4 fe  	lbu	a5, -0x12(s0)
80200e80: 37 07 30 80  	lui	a4, 0x80300
80200e84: 13 07 07 00  	mv	a4, a4
80200e88: b7 d6 03 00  	lui	a3, 0x3d
80200e8c: 93 86 36 0d  	addi	a3, a3, 0xd3
80200e90: b3 06 d6 02  	mul	a3, a2, a3
80200e94: b3 86 f6 00  	add	a3, a3, a5
80200e98: b7 d7 03 00  	lui	a5, 0x3d
80200e9c: 93 87 07 09  	addi	a5, a5, 0x90
80200ea0: b3 87 f6 00  	add	a5, a3, a5
80200ea4: 93 97 27 00  	slli	a5, a5, 0x2
80200ea8: b3 07 f7 00  	add	a5, a4, a5
80200eac: 23 a0 07 00  	sw	zero, 0x0(a5)
80200eb0: 83 47 e4 fe  	lbu	a5, -0x12(s0)
80200eb4: 93 87 17 00  	addi	a5, a5, 0x1
80200eb8: 23 07 f4 fe  	sb	a5, -0x12(s0)
80200ebc: 03 47 e4 fe  	lbu	a4, -0x12(s0)
80200ec0: 93 07 f0 01  	li	a5, 0x1f
80200ec4: e3 fa e7 fa  	bgeu	a5, a4, 0x80200e78 <initialize_processes+0xd8>
80200ec8: 03 47 f4 fe  	lbu	a4, -0x11(s0)
80200ecc: b7 47 0f 00  	lui	a5, 0xf4
80200ed0: 93 87 c7 34  	addi	a5, a5, 0x34c
80200ed4: 33 07 f7 02  	mul	a4, a4, a5
80200ed8: b7 47 0f 00  	lui	a5, 0xf4
80200edc: 93 87 07 24  	addi	a5, a5, 0x240
80200ee0: 33 07 f7 00  	add	a4, a4, a5
80200ee4: b7 07 30 80  	lui	a5, 0x80300
80200ee8: 93 87 07 00  	mv	a5, a5
80200eec: b3 07 f7 00  	add	a5, a4, a5
80200ef0: 03 46 f4 fe  	lbu	a2, -0x11(s0)
80200ef4: 13 87 07 fa  	addi	a4, a5, -0x60
80200ef8: b7 07 30 80  	lui	a5, 0x80300
80200efc: 93 86 07 00  	mv	a3, a5
80200f00: b7 47 0f 00  	lui	a5, 0xf4
80200f04: 93 87 c7 34  	addi	a5, a5, 0x34c
80200f08: b3 07 f6 02  	mul	a5, a2, a5
80200f0c: b3 87 f6 00  	add	a5, a3, a5
80200f10: b7 46 0f 00  	lui	a3, 0xf4
80200f14: b3 87 f6 00  	add	a5, a3, a5
80200f18: 23 a4 e7 24  	sw	a4, 0x248(a5)
80200f1c: 23 24 04 fe  	sw	zero, -0x18(s0)
80200f20: 6f 00 c0 03  	j	0x80200f5c <initialize_processes+0x1bc>
80200f24: 83 46 f4 fe  	lbu	a3, -0x11(s0)
80200f28: b7 07 30 80  	lui	a5, 0x80300
80200f2c: 13 87 07 00  	mv	a4, a5
80200f30: b7 d7 03 00  	lui	a5, 0x3d
80200f34: 93 87 37 0d  	addi	a5, a5, 0xd3
80200f38: b3 86 f6 02  	mul	a3, a3, a5
80200f3c: 83 27 84 fe  	lw	a5, -0x18(s0)
80200f40: b3 87 f6 00  	add	a5, a3, a5
80200f44: 93 97 27 00  	slli	a5, a5, 0x2
80200f48: b3 07 f7 00  	add	a5, a4, a5
80200f4c: 23 a0 07 00  	sw	zero, 0x0(a5)
80200f50: 83 27 84 fe  	lw	a5, -0x18(s0)
80200f54: 93 87 17 00  	addi	a5, a5, 0x1
80200f58: 23 24 f4 fe  	sw	a5, -0x18(s0)
80200f5c: 03 27 84 fe  	lw	a4, -0x18(s0)
80200f60: b7 d7 03 00  	lui	a5, 0x3d
80200f64: 93 87 f7 08  	addi	a5, a5, 0x8f
80200f68: e3 fe e7 fa  	bgeu	a5, a4, 0x80200f24 <initialize_processes+0x184>
80200f6c: 83 47 f4 fe  	lbu	a5, -0x11(s0)
80200f70: 93 87 17 00  	addi	a5, a5, 0x1
80200f74: a3 07 f4 fe  	sb	a5, -0x11(s0)
80200f78: 03 47 f4 fe  	lbu	a4, -0x11(s0)
80200f7c: 93 07 70 00  	li	a5, 0x7
80200f80: e3 fc e7 e2  	bgeu	a5, a4, 0x80200db8 <initialize_processes+0x18>
80200f84: 13 00 00 00  	nop
80200f88: 13 00 00 00  	nop
80200f8c: 83 20 c1 01  	lw	ra, 0x1c(sp)
80200f90: 03 24 81 01  	lw	s0, 0x18(sp)
80200f94: 13 01 01 02  	addi	sp, sp, 0x20
80200f98: 67 80 00 00  	ret

80200f9c <process_done>:
80200f9c: 13 01 01 ff  	addi	sp, sp, -0x10
80200fa0: 23 26 81 00  	sw	s0, 0xc(sp)
80200fa4: 13 04 01 01  	addi	s0, sp, 0x10
80200fa8: b7 27 da 80  	lui	a5, 0x80da2
80200fac: 13 07 10 00  	li	a4, 0x1
80200fb0: 23 88 e7 c6  	sb	a4, -0x390(a5)
80200fb4: 73 00 50 10  	wfi
80200fb8: 13 00 00 00  	nop
80200fbc: 03 24 c1 00  	lw	s0, 0xc(sp)
80200fc0: 13 01 01 01  	addi	sp, sp, 0x10
80200fc4: 67 80 00 00  	ret

80200fc8 <add_process>:
80200fc8: 13 01 01 fd  	addi	sp, sp, -0x30
80200fcc: 23 26 11 02  	sw	ra, 0x2c(sp)
80200fd0: 23 24 81 02  	sw	s0, 0x28(sp)
80200fd4: 13 04 01 03  	addi	s0, sp, 0x30
80200fd8: 93 07 05 00  	mv	a5, a0
80200fdc: 13 87 05 00  	mv	a4, a1
80200fe0: 23 2c c4 fc  	sw	a2, -0x28(s0)
80200fe4: 23 2a d4 fc  	sw	a3, -0x2c(s0)
80200fe8: a3 0f f4 fc  	sb	a5, -0x21(s0)
80200fec: 93 07 07 00  	mv	a5, a4
80200ff0: 23 0f f4 fc  	sb	a5, -0x22(s0)
80200ff4: b7 27 da 80  	lui	a5, 0x80da2
80200ff8: 03 c7 27 c7  	lbu	a4, -0x38e(a5)
80200ffc: 93 07 f0 0f  	li	a5, 0xff
80201000: 63 16 f7 00  	bne	a4, a5, 0x8020100c <add_process+0x44>
80201004: 93 07 20 00  	li	a5, 0x2
80201008: 6f 00 00 1f  	j	0x802011f8 <add_process+0x230>
8020100c: a3 07 04 fe  	sb	zero, -0x11(s0)
80201010: 23 07 04 fe  	sb	zero, -0x12(s0)
80201014: 6f 00 c0 0a  	j	0x802010c0 <add_process+0xf8>
80201018: 83 46 e4 fe  	lbu	a3, -0x12(s0)
8020101c: b7 07 30 80  	lui	a5, 0x80300
80201020: 13 87 07 00  	mv	a4, a5
80201024: b7 47 0f 00  	lui	a5, 0xf4
80201028: 93 87 c7 34  	addi	a5, a5, 0x34c
8020102c: b3 87 f6 02  	mul	a5, a3, a5
80201030: b3 07 f7 00  	add	a5, a4, a5
80201034: 37 47 0f 00  	lui	a4, 0xf4
80201038: b3 07 f7 00  	add	a5, a4, a5
8020103c: 03 a7 47 34  	lw	a4, 0x344(a5)
80201040: 93 07 10 00  	li	a5, 0x1
80201044: 63 0a f7 02  	beq	a4, a5, 0x80201078 <add_process+0xb0>
80201048: 83 46 e4 fe  	lbu	a3, -0x12(s0)
8020104c: b7 07 30 80  	lui	a5, 0x80300
80201050: 13 87 07 00  	mv	a4, a5
80201054: b7 47 0f 00  	lui	a5, 0xf4
80201058: 93 87 c7 34  	addi	a5, a5, 0x34c
8020105c: b3 87 f6 02  	mul	a5, a3, a5
80201060: b3 07 f7 00  	add	a5, a4, a5
80201064: 37 47 0f 00  	lui	a4, 0xf4
80201068: b3 07 f7 00  	add	a5, a4, a5
8020106c: 03 a7 47 34  	lw	a4, 0x344(a5)
80201070: 93 07 20 00  	li	a5, 0x2
80201074: 63 10 f7 04  	bne	a4, a5, 0x802010b4 <add_process+0xec>
80201078: 83 46 e4 fe  	lbu	a3, -0x12(s0)
8020107c: b7 07 30 80  	lui	a5, 0x80300
80201080: 13 87 07 00  	mv	a4, a5
80201084: b7 47 0f 00  	lui	a5, 0xf4
80201088: 93 87 c7 34  	addi	a5, a5, 0x34c
8020108c: b3 87 f6 02  	mul	a5, a3, a5
80201090: b3 07 f7 00  	add	a5, a4, a5
80201094: 37 47 0f 00  	lui	a4, 0xf4
80201098: b3 07 f7 00  	add	a5, a4, a5
8020109c: 83 c7 87 34  	lbu	a5, 0x348(a5)
802010a0: 03 47 f4 fd  	lbu	a4, -0x21(s0)
802010a4: 63 18 f7 00  	bne	a4, a5, 0x802010b4 <add_process+0xec>
802010a8: 93 07 30 00  	li	a5, 0x3
802010ac: a3 07 f4 fe  	sb	a5, -0x11(s0)
802010b0: 6f 00 c0 01  	j	0x802010cc <add_process+0x104>
802010b4: 83 47 e4 fe  	lbu	a5, -0x12(s0)
802010b8: 93 87 17 00  	addi	a5, a5, 0x1
802010bc: 23 07 f4 fe  	sb	a5, -0x12(s0)
802010c0: 03 47 e4 fe  	lbu	a4, -0x12(s0)
802010c4: 93 07 70 00  	li	a5, 0x7
802010c8: e3 f8 e7 f4  	bgeu	a5, a4, 0x80201018 <add_process+0x50>
802010cc: 03 47 f4 fe  	lbu	a4, -0x11(s0)
802010d0: 93 07 30 00  	li	a5, 0x3
802010d4: 63 1c f7 00  	bne	a4, a5, 0x802010ec <add_process+0x124>
802010d8: 83 47 f4 fd  	lbu	a5, -0x21(s0)
802010dc: 13 85 07 00  	mv	a0, a5
802010e0: ef f0 1f be  	jal	0x80200cc0 <get_new_id>
802010e4: 93 07 05 00  	mv	a5, a0
802010e8: a3 0f f4 fc  	sb	a5, -0x21(s0)
802010ec: a3 06 04 fe  	sb	zero, -0x13(s0)
802010f0: 93 07 00 f8  	li	a5, -0x80
802010f4: 23 06 f4 fe  	sb	a5, -0x14(s0)
802010f8: 6f 00 40 05  	j	0x8020114c <add_process+0x184>
802010fc: b7 27 da 80  	lui	a5, 0x80da2
80201100: 83 c7 27 c7  	lbu	a5, -0x38e(a5)
80201104: 03 47 c4 fe  	lbu	a4, -0x14(s0)
80201108: b3 f7 e7 00  	and	a5, a5, a4
8020110c: 93 f7 f7 0f  	andi	a5, a5, 0xff
80201110: 63 92 07 02  	bnez	a5, 0x80201134 <add_process+0x16c>
80201114: b7 27 da 80  	lui	a5, 0x80da2
80201118: 83 c7 27 c7  	lbu	a5, -0x38e(a5)
8020111c: 03 47 c4 fe  	lbu	a4, -0x14(s0)
80201120: b3 e7 e7 00  	or	a5, a5, a4
80201124: 13 f7 f7 0f  	andi	a4, a5, 0xff
80201128: b7 27 da 80  	lui	a5, 0x80da2
8020112c: 23 89 e7 c6  	sb	a4, -0x38e(a5)
80201130: 6f 00 40 02  	j	0x80201154 <add_process+0x18c>
80201134: 83 47 c4 fe  	lbu	a5, -0x14(s0)
80201138: 93 d7 17 00  	srli	a5, a5, 0x1
8020113c: 23 06 f4 fe  	sb	a5, -0x14(s0)
80201140: 83 47 d4 fe  	lbu	a5, -0x13(s0)
80201144: 93 87 17 00  	addi	a5, a5, 0x1
80201148: a3 06 f4 fe  	sb	a5, -0x13(s0)
8020114c: 83 47 c4 fe  	lbu	a5, -0x14(s0)
80201150: e3 96 07 fa  	bnez	a5, 0x802010fc <add_process+0x134>
80201154: b7 27 da 80  	lui	a5, 0x80da2
80201158: 03 47 d4 fe  	lbu	a4, -0x13(s0)
8020115c: a3 89 e7 c6  	sb	a4, -0x38d(a5)
80201160: b7 27 da 80  	lui	a5, 0x80da2
80201164: 83 c7 37 c7  	lbu	a5, -0x38d(a5)
80201168: 13 87 07 00  	mv	a4, a5
8020116c: b7 47 0f 00  	lui	a5, 0xf4
80201170: 93 87 c7 34  	addi	a5, a5, 0x34c
80201174: 33 07 f7 02  	mul	a4, a4, a5
80201178: b7 07 30 80  	lui	a5, 0x80300
8020117c: 93 87 07 00  	mv	a5, a5
80201180: b3 07 f7 00  	add	a5, a4, a5
80201184: 23 24 f4 fe  	sw	a5, -0x18(s0)
80201188: 03 27 84 fe  	lw	a4, -0x18(s0)
8020118c: b7 47 0f 00  	lui	a5, 0xf4
80201190: b3 07 f7 00  	add	a5, a4, a5
80201194: 23 a2 07 34  	sw	zero, 0x344(a5)
80201198: 03 27 84 fe  	lw	a4, -0x18(s0)
8020119c: b7 47 0f 00  	lui	a5, 0xf4
802011a0: b3 07 f7 00  	add	a5, a4, a5
802011a4: 03 47 f4 fd  	lbu	a4, -0x21(s0)
802011a8: 23 84 e7 34  	sb	a4, 0x348(a5)
802011ac: 03 27 84 fe  	lw	a4, -0x18(s0)
802011b0: b7 47 0f 00  	lui	a5, 0xf4
802011b4: 93 87 47 2c  	addi	a5, a5, 0x2c4
802011b8: b3 07 f7 00  	add	a5, a4, a5
802011bc: 13 06 00 08  	li	a2, 0x80
802011c0: 83 25 84 fd  	lw	a1, -0x28(s0)
802011c4: 13 85 07 00  	mv	a0, a5
802011c8: ef f0 df 91  	jal	0x80200ae4 <strncpy>
802011cc: 03 27 84 fe  	lw	a4, -0x18(s0)
802011d0: b7 47 0f 00  	lui	a5, 0xf4
802011d4: b3 07 f7 00  	add	a5, a4, a5
802011d8: 03 47 e4 fd  	lbu	a4, -0x22(s0)
802011dc: a3 84 e7 34  	sb	a4, 0x349(a5)
802011e0: 03 27 84 fe  	lw	a4, -0x18(s0)
802011e4: b7 47 0f 00  	lui	a5, 0xf4
802011e8: b3 07 f7 00  	add	a5, a4, a5
802011ec: 03 27 44 fd  	lw	a4, -0x2c(s0)
802011f0: 23 a0 e7 2c  	sw	a4, 0x2c0(a5)
802011f4: 83 47 f4 fe  	lbu	a5, -0x11(s0)
802011f8: 13 85 07 00  	mv	a0, a5
802011fc: 83 20 c1 02  	lw	ra, 0x2c(sp)
80201200: 03 24 81 02  	lw	s0, 0x28(sp)
80201204: 13 01 01 03  	addi	sp, sp, 0x30
80201208: 67 80 00 00  	ret

8020120c <schedule>:
8020120c: 13 01 01 ff  	addi	sp, sp, -0x10
80201210: 23 26 11 00  	sw	ra, 0xc(sp)
80201214: 23 24 81 00  	sw	s0, 0x8(sp)
80201218: 13 04 01 01  	addi	s0, sp, 0x10
8020121c: b7 27 da 80  	lui	a5, 0x80da2
80201220: 83 c7 27 c7  	lbu	a5, -0x38e(a5)
80201224: 63 9c 07 00  	bnez	a5, 0x8020123c <schedule+0x30>
80201228: b7 27 da 80  	lui	a5, 0x80da2
8020122c: 83 a7 87 c7  	lw	a5, -0x388(a5)
80201230: 13 85 07 00  	mv	a0, a5
80201234: ef f0 5f a0  	jal	0x80200c38 <write_csr_sepc>
80201238: 6f 00 c0 29  	j	0x802014d4 <schedule+0x2c8>
8020123c: b7 27 da 80  	lui	a5, 0x80da2
80201240: 83 c7 37 c7  	lbu	a5, -0x38d(a5)
80201244: 93 86 07 00  	mv	a3, a5
80201248: b7 07 30 80  	lui	a5, 0x80300
8020124c: 13 87 07 00  	mv	a4, a5
80201250: b7 47 0f 00  	lui	a5, 0xf4
80201254: 93 87 c7 34  	addi	a5, a5, 0x34c
80201258: b3 87 f6 02  	mul	a5, a3, a5
8020125c: b3 07 f7 00  	add	a5, a4, a5
80201260: 37 47 0f 00  	lui	a4, 0xf4
80201264: b3 07 f7 00  	add	a5, a4, a5
80201268: 03 c7 97 34  	lbu	a4, 0x349(a5)
8020126c: b7 27 da 80  	lui	a5, 0x80da2
80201270: 83 c7 47 c7  	lbu	a5, -0x38c(a5)
80201274: 63 1a f7 1a  	bne	a4, a5, 0x80201428 <schedule+0x21c>
80201278: b7 27 da 80  	lui	a5, 0x80da2
8020127c: 23 8a 07 c6  	sb	zero, -0x38c(a5)
80201280: b7 27 da 80  	lui	a5, 0x80da2
80201284: 83 c7 37 c7  	lbu	a5, -0x38d(a5)
80201288: 13 87 07 00  	mv	a4, a5
8020128c: b7 47 0f 00  	lui	a5, 0xf4
80201290: 93 87 c7 34  	addi	a5, a5, 0x34c
80201294: 33 07 f7 02  	mul	a4, a4, a5
80201298: b7 07 30 80  	lui	a5, 0x80300
8020129c: 93 87 07 00  	mv	a5, a5
802012a0: b3 07 f7 00  	add	a5, a4, a5
802012a4: 13 85 07 00  	mv	a0, a5
802012a8: ef 00 80 24  	jal	0x802014f0 <save_context>
802012ac: b7 27 da 80  	lui	a5, 0x80da2
802012b0: 03 c7 37 c7  	lbu	a4, -0x38d(a5)
802012b4: 93 07 60 00  	li	a5, 0x6
802012b8: 63 e6 e7 04  	bltu	a5, a4, 0x80201304 <schedule+0xf8>
802012bc: b7 27 da 80  	lui	a5, 0x80da2
802012c0: 83 c7 27 c7  	lbu	a5, -0x38e(a5)
802012c4: 13 87 07 00  	mv	a4, a5
802012c8: b7 27 da 80  	lui	a5, 0x80da2
802012cc: 83 c7 37 c7  	lbu	a5, -0x38d(a5)
802012d0: 93 86 07 00  	mv	a3, a5
802012d4: 93 07 60 00  	li	a5, 0x6
802012d8: b3 87 d7 40  	sub	a5, a5, a3
802012dc: b3 57 f7 40  	sra	a5, a4, a5
802012e0: 93 f7 17 00  	andi	a5, a5, 0x1
802012e4: 63 80 07 02  	beqz	a5, 0x80201304 <schedule+0xf8>
802012e8: b7 27 da 80  	lui	a5, 0x80da2
802012ec: 83 c7 37 c7  	lbu	a5, -0x38d(a5)
802012f0: 93 87 17 00  	addi	a5, a5, 0x1
802012f4: 13 f7 f7 0f  	andi	a4, a5, 0xff
802012f8: b7 27 da 80  	lui	a5, 0x80da2
802012fc: a3 89 e7 c6  	sb	a4, -0x38d(a5)
80201300: 6f 00 c0 00  	j	0x8020130c <schedule+0x100>
80201304: b7 27 da 80  	lui	a5, 0x80da2
80201308: a3 89 07 c6  	sb	zero, -0x38d(a5)
8020130c: b7 27 da 80  	lui	a5, 0x80da2
80201310: 83 c7 37 c7  	lbu	a5, -0x38d(a5)
80201314: 93 86 07 00  	mv	a3, a5
80201318: b7 07 30 80  	lui	a5, 0x80300
8020131c: 13 87 07 00  	mv	a4, a5
80201320: b7 47 0f 00  	lui	a5, 0xf4
80201324: 93 87 c7 34  	addi	a5, a5, 0x34c
80201328: b3 87 f6 02  	mul	a5, a3, a5
8020132c: b3 07 f7 00  	add	a5, a4, a5
80201330: 37 47 0f 00  	lui	a4, 0xf4
80201334: b3 07 f7 00  	add	a5, a4, a5
80201338: 03 a7 47 34  	lw	a4, 0x344(a5)
8020133c: 93 07 20 00  	li	a5, 0x2
80201340: 63 1a f7 02  	bne	a4, a5, 0x80201374 <schedule+0x168>
80201344: b7 27 da 80  	lui	a5, 0x80da2
80201348: 83 c7 37 c7  	lbu	a5, -0x38d(a5)
8020134c: 13 87 07 00  	mv	a4, a5
80201350: b7 47 0f 00  	lui	a5, 0xf4
80201354: 93 87 c7 34  	addi	a5, a5, 0x34c
80201358: 33 07 f7 02  	mul	a4, a4, a5
8020135c: b7 07 30 80  	lui	a5, 0x80300
80201360: 93 87 07 00  	mv	a5, a5
80201364: b3 07 f7 00  	add	a5, a4, a5
80201368: 13 85 07 00  	mv	a0, a5
8020136c: ef 00 d0 0a  	jal	0x80201c18 <load_context>
80201370: 6f 00 80 07  	j	0x802013e8 <schedule+0x1dc>
80201374: b7 27 da 80  	lui	a5, 0x80da2
80201378: 83 c7 37 c7  	lbu	a5, -0x38d(a5)
8020137c: 93 86 07 00  	mv	a3, a5
80201380: b7 07 30 80  	lui	a5, 0x80300
80201384: 13 87 07 00  	mv	a4, a5
80201388: b7 47 0f 00  	lui	a5, 0xf4
8020138c: 93 87 c7 34  	addi	a5, a5, 0x34c
80201390: b3 87 f6 02  	mul	a5, a3, a5
80201394: b3 07 f7 00  	add	a5, a4, a5
80201398: 37 47 0f 00  	lui	a4, 0xf4
8020139c: b3 07 f7 00  	add	a5, a4, a5
802013a0: 83 a7 87 24  	lw	a5, 0x248(a5)
802013a4: 13 85 07 00  	mv	a0, a5
802013a8: ef 00 c0 13  	jal	0x802014e4 <switch_sp>
802013ac: b7 27 da 80  	lui	a5, 0x80da2
802013b0: 83 c7 37 c7  	lbu	a5, -0x38d(a5)
802013b4: 93 86 07 00  	mv	a3, a5
802013b8: b7 07 30 80  	lui	a5, 0x80300
802013bc: 13 87 07 00  	mv	a4, a5
802013c0: b7 47 0f 00  	lui	a5, 0xf4
802013c4: 93 87 c7 34  	addi	a5, a5, 0x34c
802013c8: b3 87 f6 02  	mul	a5, a3, a5
802013cc: b3 07 f7 00  	add	a5, a4, a5
802013d0: 37 47 0f 00  	lui	a4, 0xf4
802013d4: b3 07 f7 00  	add	a5, a4, a5
802013d8: 83 a7 07 2c  	lw	a5, 0x2c0(a5)
802013dc: 13 85 07 00  	mv	a0, a5
802013e0: ef f0 9f 85  	jal	0x80200c38 <write_csr_sepc>
802013e4: 73 00 20 10  	sret
802013e8: ef f0 5f 82  	jal	0x80200c0c <read_csr_sepc>
802013ec: 93 07 05 00  	mv	a5, a0
802013f0: 93 85 07 00  	mv	a1, a5
802013f4: b7 37 20 80  	lui	a5, 0x80203
802013f8: 13 85 47 d6  	addi	a0, a5, -0x29c
802013fc: ef e0 1f f2  	jal	0x8020031c <uart_printf>
80201400: b7 37 20 80  	lui	a5, 0x80203
80201404: 13 85 c7 d7  	addi	a0, a5, -0x284
80201408: ef e0 df eb  	jal	0x802002c4 <uart_prints>
8020140c: ef f0 1f 80  	jal	0x80200c0c <read_csr_sepc>
80201410: 93 07 05 00  	mv	a5, a0
80201414: 93 85 07 00  	mv	a1, a5
80201418: b7 37 20 80  	lui	a5, 0x80203
8020141c: 13 85 c7 d9  	addi	a0, a5, -0x264
80201420: ef e0 df ef  	jal	0x8020031c <uart_printf>
80201424: 6f 00 00 0b  	j	0x802014d4 <schedule+0x2c8>
80201428: b7 27 da 80  	lui	a5, 0x80da2
8020142c: 83 c7 07 c7  	lbu	a5, -0x390(a5)
80201430: 63 82 07 08  	beqz	a5, 0x802014b4 <schedule+0x2a8>
80201434: b7 27 da 80  	lui	a5, 0x80da2
80201438: 23 88 07 c6  	sb	zero, -0x390(a5)
8020143c: b7 27 da 80  	lui	a5, 0x80da2
80201440: 03 c7 37 c7  	lbu	a4, -0x38d(a5)
80201444: 93 07 80 00  	li	a5, 0x8
80201448: 63 04 f7 08  	beq	a4, a5, 0x802014d0 <schedule+0x2c4>
8020144c: b7 27 da 80  	lui	a5, 0x80da2
80201450: 83 c7 37 c7  	lbu	a5, -0x38d(a5)
80201454: 13 87 07 00  	mv	a4, a5
80201458: b7 47 0f 00  	lui	a5, 0xf4
8020145c: 93 87 c7 34  	addi	a5, a5, 0x34c
80201460: 33 07 f7 02  	mul	a4, a4, a5
80201464: b7 07 30 80  	lui	a5, 0x80300
80201468: 93 87 07 00  	mv	a5, a5
8020146c: b3 07 f7 00  	add	a5, a4, a5
80201470: 13 85 07 00  	mv	a0, a5
80201474: ef 00 40 7a  	jal	0x80201c18 <load_context>
80201478: b7 27 da 80  	lui	a5, 0x80da2
8020147c: 83 c7 37 c7  	lbu	a5, -0x38d(a5)
80201480: 93 86 07 00  	mv	a3, a5
80201484: b7 07 30 80  	lui	a5, 0x80300
80201488: 13 87 07 00  	mv	a4, a5
8020148c: b7 47 0f 00  	lui	a5, 0xf4
80201490: 93 87 c7 34  	addi	a5, a5, 0x34c
80201494: b3 87 f6 02  	mul	a5, a3, a5
80201498: b3 07 f7 00  	add	a5, a4, a5
8020149c: 37 47 0f 00  	lui	a4, 0xf4
802014a0: b3 07 f7 00  	add	a5, a4, a5
802014a4: 83 a7 07 2c  	lw	a5, 0x2c0(a5)
802014a8: 13 85 07 00  	mv	a0, a5
802014ac: ef f0 cf f8  	jal	0x80200c38 <write_csr_sepc>
802014b0: 6f 00 40 02  	j	0x802014d4 <schedule+0x2c8>
802014b4: b7 27 da 80  	lui	a5, 0x80da2
802014b8: 83 c7 47 c7  	lbu	a5, -0x38c(a5)
802014bc: 93 87 17 00  	addi	a5, a5, 0x1
802014c0: 13 f7 f7 0f  	andi	a4, a5, 0xff
802014c4: b7 27 da 80  	lui	a5, 0x80da2
802014c8: 23 8a e7 c6  	sb	a4, -0x38c(a5)
802014cc: 6f 00 80 00  	j	0x802014d4 <schedule+0x2c8>
802014d0: 13 00 00 00  	nop
802014d4: 83 20 c1 00  	lw	ra, 0xc(sp)
802014d8: 03 24 81 00  	lw	s0, 0x8(sp)
802014dc: 13 01 01 01  	addi	sp, sp, 0x10
802014e0: 67 80 00 00  	ret

802014e4 <switch_sp>:
802014e4: 93 07 05 00  	mv	a5, a0
802014e8: 13 81 07 00  	mv	sp, a5
802014ec: 13 00 00 00  	nop

802014f0 <save_context>:
802014f0: 13 01 01 fc  	addi	sp, sp, -0x40
802014f4: 23 2e 11 02  	sw	ra, 0x3c(sp)
802014f8: 23 2c 81 02  	sw	s0, 0x38(sp)
802014fc: 23 2a 91 02  	sw	s1, 0x34(sp)
80201500: 23 28 21 03  	sw	s2, 0x30(sp)
80201504: 23 26 31 03  	sw	s3, 0x2c(sp)
80201508: 23 24 41 03  	sw	s4, 0x28(sp)
8020150c: 13 04 01 04  	addi	s0, sp, 0x40
80201510: 23 26 a4 fc  	sw	a0, -0x34(s0)
80201514: 03 27 c4 fc  	lw	a4, -0x34(s0)
80201518: b7 47 0f 00  	lui	a5, 0xf4
8020151c: b3 07 f7 00  	add	a5, a4, a5
80201520: 83 a7 47 34  	lw	a5, 0x344(a5)
80201524: 63 96 07 00  	bnez	a5, 0x80201530 <save_context+0x40>
80201528: 93 07 10 00  	li	a5, 0x1
8020152c: 6f 00 80 6c  	j	0x80201bf4 <save_context+0x704>
80201530: 23 2e 04 fc  	sw	zero, -0x24(s0)
80201534: 93 07 04 00  	mv	a5, s0
80201538: 23 2e f4 fc  	sw	a5, -0x24(s0)
8020153c: 83 27 c4 fd  	lw	a5, -0x24(s0)
80201540: 93 87 87 ff  	addi	a5, a5, -0x8
80201544: 83 a7 07 00  	lw	a5, 0x0(a5)
80201548: 23 2e f4 fc  	sw	a5, -0x24(s0)
8020154c: b7 27 da 80  	lui	a5, 0x80da2
80201550: 83 c7 37 c7  	lbu	a5, -0x38d(a5)
80201554: 13 8a 07 00  	mv	s4, a5
80201558: b7 27 da 80  	lui	a5, 0x80da2
8020155c: 83 c7 37 c7  	lbu	a5, -0x38d(a5)
80201560: 93 89 07 00  	mv	s3, a5
80201564: b7 27 da 80  	lui	a5, 0x80da2
80201568: 83 c7 37 c7  	lbu	a5, -0x38d(a5)
8020156c: 13 89 07 00  	mv	s2, a5
80201570: b7 27 da 80  	lui	a5, 0x80da2
80201574: 83 c7 37 c7  	lbu	a5, -0x38d(a5)
80201578: 93 84 07 00  	mv	s1, a5
8020157c: b7 27 da 80  	lui	a5, 0x80da2
80201580: 83 c7 37 c7  	lbu	a5, -0x38d(a5)
80201584: 93 80 07 00  	mv	ra, a5
80201588: b7 27 da 80  	lui	a5, 0x80da2
8020158c: 83 c7 37 c7  	lbu	a5, -0x38d(a5)
80201590: 93 83 07 00  	mv	t2, a5
80201594: b7 27 da 80  	lui	a5, 0x80da2
80201598: 83 c7 37 c7  	lbu	a5, -0x38d(a5)
8020159c: 93 82 07 00  	mv	t0, a5
802015a0: b7 27 da 80  	lui	a5, 0x80da2
802015a4: 83 c7 37 c7  	lbu	a5, -0x38d(a5)
802015a8: 93 8f 07 00  	mv	t6, a5
802015ac: b7 27 da 80  	lui	a5, 0x80da2
802015b0: 83 c7 37 c7  	lbu	a5, -0x38d(a5)
802015b4: 13 8f 07 00  	mv	t5, a5
802015b8: 83 27 c4 fd  	lw	a5, -0x24(s0)
802015bc: 13 8e 00 00  	mv	t3, ra
802015c0: 13 03 04 fe  	addi	t1, s0, -0x20
802015c4: 93 88 01 00  	mv	a7, gp
802015c8: 13 08 02 00  	mv	a6, tp
802015cc: 03 a5 87 ff  	lw	a0, -0x8(a5)
802015d0: 83 a5 47 ff  	lw	a1, -0xc(a5)
802015d4: 03 a6 07 ff  	lw	a2, -0x10(a5)
802015d8: 93 06 04 00  	mv	a3, s0
802015dc: 13 87 04 00  	mv	a4, s1
802015e0: b7 07 30 80  	lui	a5, 0x80300
802015e4: 93 8e 07 00  	mv	t4, a5
802015e8: b7 47 0f 00  	lui	a5, 0xf4
802015ec: 93 87 c7 34  	addi	a5, a5, 0x34c
802015f0: b3 07 fa 02  	mul	a5, s4, a5
802015f4: b3 87 fe 00  	add	a5, t4, a5
802015f8: b7 4e 0f 00  	lui	t4, 0xf4
802015fc: b3 87 fe 00  	add	a5, t4, a5
80201600: 23 a2 c7 25  	sw	t3, 0x244(a5)
80201604: b7 07 30 80  	lui	a5, 0x80300
80201608: 13 8e 07 00  	mv	t3, a5
8020160c: b7 47 0f 00  	lui	a5, 0xf4
80201610: 93 87 c7 34  	addi	a5, a5, 0x34c
80201614: b3 87 f9 02  	mul	a5, s3, a5
80201618: b3 07 fe 00  	add	a5, t3, a5
8020161c: 37 4e 0f 00  	lui	t3, 0xf4
80201620: b3 07 fe 00  	add	a5, t3, a5
80201624: 23 a4 67 24  	sw	t1, 0x248(a5)
80201628: b7 07 30 80  	lui	a5, 0x80300
8020162c: 13 83 07 00  	mv	t1, a5
80201630: b7 47 0f 00  	lui	a5, 0xf4
80201634: 93 87 c7 34  	addi	a5, a5, 0x34c
80201638: b3 07 f9 02  	mul	a5, s2, a5
8020163c: b3 07 f3 00  	add	a5, t1, a5
80201640: 37 43 0f 00  	lui	t1, 0xf4
80201644: b3 07 f3 00  	add	a5, t1, a5
80201648: 23 a6 17 25  	sw	a7, 0x24c(a5)
8020164c: b7 07 30 80  	lui	a5, 0x80300
80201650: 93 88 07 00  	mv	a7, a5
80201654: b7 47 0f 00  	lui	a5, 0xf4
80201658: 93 87 c7 34  	addi	a5, a5, 0x34c
8020165c: b3 87 f4 02  	mul	a5, s1, a5
80201660: b3 87 f8 00  	add	a5, a7, a5
80201664: b7 48 0f 00  	lui	a7, 0xf4
80201668: b3 87 f8 00  	add	a5, a7, a5
8020166c: 23 a8 07 25  	sw	a6, 0x250(a5)
80201670: b7 07 30 80  	lui	a5, 0x80300
80201674: 13 88 07 00  	mv	a6, a5
80201678: b7 47 0f 00  	lui	a5, 0xf4
8020167c: 93 87 c7 34  	addi	a5, a5, 0x34c
80201680: b3 87 f0 02  	mul	a5, ra, a5
80201684: b3 07 f8 00  	add	a5, a6, a5
80201688: 37 48 0f 00  	lui	a6, 0xf4
8020168c: b3 07 f8 00  	add	a5, a6, a5
80201690: 23 aa a7 24  	sw	a0, 0x254(a5)
80201694: b7 07 30 80  	lui	a5, 0x80300
80201698: 13 85 07 00  	mv	a0, a5
8020169c: b7 47 0f 00  	lui	a5, 0xf4
802016a0: 93 87 c7 34  	addi	a5, a5, 0x34c
802016a4: b3 87 f3 02  	mul	a5, t2, a5
802016a8: b3 07 f5 00  	add	a5, a0, a5
802016ac: 37 45 0f 00  	lui	a0, 0xf4
802016b0: b3 07 f5 00  	add	a5, a0, a5
802016b4: 23 ac b7 24  	sw	a1, 0x258(a5)
802016b8: b7 07 30 80  	lui	a5, 0x80300
802016bc: 93 85 07 00  	mv	a1, a5
802016c0: b7 47 0f 00  	lui	a5, 0xf4
802016c4: 93 87 c7 34  	addi	a5, a5, 0x34c
802016c8: b3 87 f2 02  	mul	a5, t0, a5
802016cc: b3 87 f5 00  	add	a5, a1, a5
802016d0: b7 45 0f 00  	lui	a1, 0xf4
802016d4: b3 87 f5 00  	add	a5, a1, a5
802016d8: 23 ae c7 24  	sw	a2, 0x25c(a5)
802016dc: b7 07 30 80  	lui	a5, 0x80300
802016e0: 13 86 07 00  	mv	a2, a5
802016e4: b7 47 0f 00  	lui	a5, 0xf4
802016e8: 93 87 c7 34  	addi	a5, a5, 0x34c
802016ec: b3 87 ff 02  	mul	a5, t6, a5
802016f0: b3 07 f6 00  	add	a5, a2, a5
802016f4: 37 46 0f 00  	lui	a2, 0xf4
802016f8: b3 07 f6 00  	add	a5, a2, a5
802016fc: 23 a0 d7 26  	sw	a3, 0x260(a5)
80201700: b7 07 30 80  	lui	a5, 0x80300
80201704: 93 86 07 00  	mv	a3, a5
80201708: b7 47 0f 00  	lui	a5, 0xf4
8020170c: 93 87 c7 34  	addi	a5, a5, 0x34c
80201710: b3 07 ff 02  	mul	a5, t5, a5
80201714: b3 87 f6 00  	add	a5, a3, a5
80201718: b7 46 0f 00  	lui	a3, 0xf4
8020171c: b3 87 f6 00  	add	a5, a3, a5
80201720: 23 a2 e7 26  	sw	a4, 0x264(a5)
80201724: b7 27 da 80  	lui	a5, 0x80da2
80201728: 83 c7 37 c7  	lbu	a5, -0x38d(a5)
8020172c: 13 8a 07 00  	mv	s4, a5
80201730: b7 27 da 80  	lui	a5, 0x80da2
80201734: 83 c7 37 c7  	lbu	a5, -0x38d(a5)
80201738: 93 89 07 00  	mv	s3, a5
8020173c: b7 27 da 80  	lui	a5, 0x80da2
80201740: 83 c7 37 c7  	lbu	a5, -0x38d(a5)
80201744: 13 89 07 00  	mv	s2, a5
80201748: b7 27 da 80  	lui	a5, 0x80da2
8020174c: 83 c7 37 c7  	lbu	a5, -0x38d(a5)
80201750: 93 84 07 00  	mv	s1, a5
80201754: b7 27 da 80  	lui	a5, 0x80da2
80201758: 83 c7 37 c7  	lbu	a5, -0x38d(a5)
8020175c: 93 80 07 00  	mv	ra, a5
80201760: b7 27 da 80  	lui	a5, 0x80da2
80201764: 83 c7 37 c7  	lbu	a5, -0x38d(a5)
80201768: 93 83 07 00  	mv	t2, a5
8020176c: b7 27 da 80  	lui	a5, 0x80da2
80201770: 83 c7 37 c7  	lbu	a5, -0x38d(a5)
80201774: 93 82 07 00  	mv	t0, a5
80201778: b7 27 da 80  	lui	a5, 0x80da2
8020177c: 83 c7 37 c7  	lbu	a5, -0x38d(a5)
80201780: 93 8f 07 00  	mv	t6, a5
80201784: b7 27 da 80  	lui	a5, 0x80da2
80201788: 83 c7 37 c7  	lbu	a5, -0x38d(a5)
8020178c: 13 8f 07 00  	mv	t5, a5
80201790: 83 27 c4 fd  	lw	a5, -0x24(s0)
80201794: 03 ae 87 fe  	lw	t3, -0x18(a5)
80201798: 03 a3 47 fe  	lw	t1, -0x1c(a5)
8020179c: 83 a8 07 fe  	lw	a7, -0x20(a5)
802017a0: 03 a8 c7 fd  	lw	a6, -0x24(a5)
802017a4: 03 a5 87 fd  	lw	a0, -0x28(a5)
802017a8: 83 a5 47 fd  	lw	a1, -0x2c(a5)
802017ac: 03 a6 07 fd  	lw	a2, -0x30(a5)
802017b0: 83 a6 c7 fc  	lw	a3, -0x34(a5)
802017b4: 13 07 09 00  	mv	a4, s2
802017b8: b7 07 30 80  	lui	a5, 0x80300
802017bc: 93 8e 07 00  	mv	t4, a5
802017c0: b7 47 0f 00  	lui	a5, 0xf4
802017c4: 93 87 c7 34  	addi	a5, a5, 0x34c
802017c8: b3 07 fa 02  	mul	a5, s4, a5
802017cc: b3 87 fe 00  	add	a5, t4, a5
802017d0: b7 4e 0f 00  	lui	t4, 0xf4
802017d4: b3 87 fe 00  	add	a5, t4, a5
802017d8: 23 a4 c7 27  	sw	t3, 0x268(a5)
802017dc: b7 07 30 80  	lui	a5, 0x80300
802017e0: 13 8e 07 00  	mv	t3, a5
802017e4: b7 47 0f 00  	lui	a5, 0xf4
802017e8: 93 87 c7 34  	addi	a5, a5, 0x34c
802017ec: b3 87 f9 02  	mul	a5, s3, a5
802017f0: b3 07 fe 00  	add	a5, t3, a5
802017f4: 37 4e 0f 00  	lui	t3, 0xf4
802017f8: b3 07 fe 00  	add	a5, t3, a5
802017fc: 23 a6 67 26  	sw	t1, 0x26c(a5)
80201800: b7 07 30 80  	lui	a5, 0x80300
80201804: 13 83 07 00  	mv	t1, a5
80201808: b7 47 0f 00  	lui	a5, 0xf4
8020180c: 93 87 c7 34  	addi	a5, a5, 0x34c
80201810: b3 07 f9 02  	mul	a5, s2, a5
80201814: b3 07 f3 00  	add	a5, t1, a5
80201818: 37 43 0f 00  	lui	t1, 0xf4
8020181c: b3 07 f3 00  	add	a5, t1, a5
80201820: 23 a8 17 27  	sw	a7, 0x270(a5)
80201824: b7 07 30 80  	lui	a5, 0x80300
80201828: 93 88 07 00  	mv	a7, a5
8020182c: b7 47 0f 00  	lui	a5, 0xf4
80201830: 93 87 c7 34  	addi	a5, a5, 0x34c
80201834: b3 87 f4 02  	mul	a5, s1, a5
80201838: b3 87 f8 00  	add	a5, a7, a5
8020183c: b7 48 0f 00  	lui	a7, 0xf4
80201840: b3 87 f8 00  	add	a5, a7, a5
80201844: 23 aa 07 27  	sw	a6, 0x274(a5)
80201848: b7 07 30 80  	lui	a5, 0x80300
8020184c: 13 88 07 00  	mv	a6, a5
80201850: b7 47 0f 00  	lui	a5, 0xf4
80201854: 93 87 c7 34  	addi	a5, a5, 0x34c
80201858: b3 87 f0 02  	mul	a5, ra, a5
8020185c: b3 07 f8 00  	add	a5, a6, a5
80201860: 37 48 0f 00  	lui	a6, 0xf4
80201864: b3 07 f8 00  	add	a5, a6, a5
80201868: 23 ac a7 26  	sw	a0, 0x278(a5)
8020186c: b7 07 30 80  	lui	a5, 0x80300
80201870: 13 85 07 00  	mv	a0, a5
80201874: b7 47 0f 00  	lui	a5, 0xf4
80201878: 93 87 c7 34  	addi	a5, a5, 0x34c
8020187c: b3 87 f3 02  	mul	a5, t2, a5
80201880: b3 07 f5 00  	add	a5, a0, a5
80201884: 37 45 0f 00  	lui	a0, 0xf4
80201888: b3 07 f5 00  	add	a5, a0, a5
8020188c: 23 ae b7 26  	sw	a1, 0x27c(a5)
80201890: b7 07 30 80  	lui	a5, 0x80300
80201894: 93 85 07 00  	mv	a1, a5
80201898: b7 47 0f 00  	lui	a5, 0xf4
8020189c: 93 87 c7 34  	addi	a5, a5, 0x34c
802018a0: b3 87 f2 02  	mul	a5, t0, a5
802018a4: b3 87 f5 00  	add	a5, a1, a5
802018a8: b7 45 0f 00  	lui	a1, 0xf4
802018ac: b3 87 f5 00  	add	a5, a1, a5
802018b0: 23 a0 c7 28  	sw	a2, 0x280(a5)
802018b4: b7 07 30 80  	lui	a5, 0x80300
802018b8: 13 86 07 00  	mv	a2, a5
802018bc: b7 47 0f 00  	lui	a5, 0xf4
802018c0: 93 87 c7 34  	addi	a5, a5, 0x34c
802018c4: b3 87 ff 02  	mul	a5, t6, a5
802018c8: b3 07 f6 00  	add	a5, a2, a5
802018cc: 37 46 0f 00  	lui	a2, 0xf4
802018d0: b3 07 f6 00  	add	a5, a2, a5
802018d4: 23 a2 d7 28  	sw	a3, 0x284(a5)
802018d8: b7 07 30 80  	lui	a5, 0x80300
802018dc: 93 86 07 00  	mv	a3, a5
802018e0: b7 47 0f 00  	lui	a5, 0xf4
802018e4: 93 87 c7 34  	addi	a5, a5, 0x34c
802018e8: b3 07 ff 02  	mul	a5, t5, a5
802018ec: b3 87 f6 00  	add	a5, a3, a5
802018f0: b7 46 0f 00  	lui	a3, 0xf4
802018f4: b3 87 f6 00  	add	a5, a3, a5
802018f8: 23 a4 e7 28  	sw	a4, 0x288(a5)
802018fc: b7 27 da 80  	lui	a5, 0x80da2
80201900: 83 c7 37 c7  	lbu	a5, -0x38d(a5)
80201904: 13 8a 07 00  	mv	s4, a5
80201908: b7 27 da 80  	lui	a5, 0x80da2
8020190c: 83 c7 37 c7  	lbu	a5, -0x38d(a5)
80201910: 93 89 07 00  	mv	s3, a5
80201914: b7 27 da 80  	lui	a5, 0x80da2
80201918: 83 c7 37 c7  	lbu	a5, -0x38d(a5)
8020191c: 13 89 07 00  	mv	s2, a5
80201920: b7 27 da 80  	lui	a5, 0x80da2
80201924: 83 c7 37 c7  	lbu	a5, -0x38d(a5)
80201928: 93 84 07 00  	mv	s1, a5
8020192c: b7 27 da 80  	lui	a5, 0x80da2
80201930: 83 c7 37 c7  	lbu	a5, -0x38d(a5)
80201934: 93 80 07 00  	mv	ra, a5
80201938: b7 27 da 80  	lui	a5, 0x80da2
8020193c: 83 c7 37 c7  	lbu	a5, -0x38d(a5)
80201940: 93 83 07 00  	mv	t2, a5
80201944: b7 27 da 80  	lui	a5, 0x80da2
80201948: 83 c7 37 c7  	lbu	a5, -0x38d(a5)
8020194c: 93 82 07 00  	mv	t0, a5
80201950: b7 27 da 80  	lui	a5, 0x80da2
80201954: 83 c7 37 c7  	lbu	a5, -0x38d(a5)
80201958: 93 8f 07 00  	mv	t6, a5
8020195c: b7 27 da 80  	lui	a5, 0x80da2
80201960: 83 c7 37 c7  	lbu	a5, -0x38d(a5)
80201964: 13 8f 07 00  	mv	t5, a5
80201968: 13 8e 0a 00  	mv	t3, s5
8020196c: 13 03 0b 00  	mv	t1, s6
80201970: 93 88 0b 00  	mv	a7, s7
80201974: 13 08 0c 00  	mv	a6, s8
80201978: 13 85 0c 00  	mv	a0, s9
8020197c: 93 05 0d 00  	mv	a1, s10
80201980: 13 86 0d 00  	mv	a2, s11
80201984: 93 86 09 00  	mv	a3, s3
80201988: 13 07 0a 00  	mv	a4, s4
8020198c: b7 07 30 80  	lui	a5, 0x80300
80201990: 93 8e 07 00  	mv	t4, a5
80201994: b7 47 0f 00  	lui	a5, 0xf4
80201998: 93 87 c7 34  	addi	a5, a5, 0x34c
8020199c: b3 07 fa 02  	mul	a5, s4, a5
802019a0: b3 87 fe 00  	add	a5, t4, a5
802019a4: b7 4e 0f 00  	lui	t4, 0xf4
802019a8: b3 87 fe 00  	add	a5, t4, a5
802019ac: 23 aa c7 29  	sw	t3, 0x294(a5)
802019b0: b7 07 30 80  	lui	a5, 0x80300
802019b4: 13 8e 07 00  	mv	t3, a5
802019b8: b7 47 0f 00  	lui	a5, 0xf4
802019bc: 93 87 c7 34  	addi	a5, a5, 0x34c
802019c0: b3 87 f9 02  	mul	a5, s3, a5
802019c4: b3 07 fe 00  	add	a5, t3, a5
802019c8: 37 4e 0f 00  	lui	t3, 0xf4
802019cc: b3 07 fe 00  	add	a5, t3, a5
802019d0: 23 ac 67 28  	sw	t1, 0x298(a5)
802019d4: b7 07 30 80  	lui	a5, 0x80300
802019d8: 13 83 07 00  	mv	t1, a5
802019dc: b7 47 0f 00  	lui	a5, 0xf4
802019e0: 93 87 c7 34  	addi	a5, a5, 0x34c
802019e4: b3 07 f9 02  	mul	a5, s2, a5
802019e8: b3 07 f3 00  	add	a5, t1, a5
802019ec: 37 43 0f 00  	lui	t1, 0xf4
802019f0: b3 07 f3 00  	add	a5, t1, a5
802019f4: 23 ae 17 29  	sw	a7, 0x29c(a5)
802019f8: b7 07 30 80  	lui	a5, 0x80300
802019fc: 93 88 07 00  	mv	a7, a5
80201a00: b7 47 0f 00  	lui	a5, 0xf4
80201a04: 93 87 c7 34  	addi	a5, a5, 0x34c
80201a08: b3 87 f4 02  	mul	a5, s1, a5
80201a0c: b3 87 f8 00  	add	a5, a7, a5
80201a10: b7 48 0f 00  	lui	a7, 0xf4
80201a14: b3 87 f8 00  	add	a5, a7, a5
80201a18: 23 a0 07 2b  	sw	a6, 0x2a0(a5)
80201a1c: b7 07 30 80  	lui	a5, 0x80300
80201a20: 13 88 07 00  	mv	a6, a5
80201a24: b7 47 0f 00  	lui	a5, 0xf4
80201a28: 93 87 c7 34  	addi	a5, a5, 0x34c
80201a2c: b3 87 f0 02  	mul	a5, ra, a5
80201a30: b3 07 f8 00  	add	a5, a6, a5
80201a34: 37 48 0f 00  	lui	a6, 0xf4
80201a38: b3 07 f8 00  	add	a5, a6, a5
80201a3c: 23 a2 a7 2a  	sw	a0, 0x2a4(a5)
80201a40: b7 07 30 80  	lui	a5, 0x80300
80201a44: 13 85 07 00  	mv	a0, a5
80201a48: b7 47 0f 00  	lui	a5, 0xf4
80201a4c: 93 87 c7 34  	addi	a5, a5, 0x34c
80201a50: b3 87 f3 02  	mul	a5, t2, a5
80201a54: b3 07 f5 00  	add	a5, a0, a5
80201a58: 37 45 0f 00  	lui	a0, 0xf4
80201a5c: b3 07 f5 00  	add	a5, a0, a5
80201a60: 23 a4 b7 2a  	sw	a1, 0x2a8(a5)
80201a64: b7 07 30 80  	lui	a5, 0x80300
80201a68: 93 85 07 00  	mv	a1, a5
80201a6c: b7 47 0f 00  	lui	a5, 0xf4
80201a70: 93 87 c7 34  	addi	a5, a5, 0x34c
80201a74: b3 87 f2 02  	mul	a5, t0, a5
80201a78: b3 87 f5 00  	add	a5, a1, a5
80201a7c: b7 45 0f 00  	lui	a1, 0xf4
80201a80: b3 87 f5 00  	add	a5, a1, a5
80201a84: 23 a6 c7 2a  	sw	a2, 0x2ac(a5)
80201a88: b7 07 30 80  	lui	a5, 0x80300
80201a8c: 13 86 07 00  	mv	a2, a5
80201a90: b7 47 0f 00  	lui	a5, 0xf4
80201a94: 93 87 c7 34  	addi	a5, a5, 0x34c
80201a98: b3 87 ff 02  	mul	a5, t6, a5
80201a9c: b3 07 f6 00  	add	a5, a2, a5
80201aa0: 37 46 0f 00  	lui	a2, 0xf4
80201aa4: b3 07 f6 00  	add	a5, a2, a5
80201aa8: 23 a6 d7 28  	sw	a3, 0x28c(a5)
80201aac: b7 07 30 80  	lui	a5, 0x80300
80201ab0: 93 86 07 00  	mv	a3, a5
80201ab4: b7 47 0f 00  	lui	a5, 0xf4
80201ab8: 93 87 c7 34  	addi	a5, a5, 0x34c
80201abc: b3 07 ff 02  	mul	a5, t5, a5
80201ac0: b3 87 f6 00  	add	a5, a3, a5
80201ac4: b7 46 0f 00  	lui	a3, 0xf4
80201ac8: b3 87 f6 00  	add	a5, a3, a5
80201acc: 23 a8 e7 28  	sw	a4, 0x290(a5)
80201ad0: b7 27 da 80  	lui	a5, 0x80da2
80201ad4: 83 c7 37 c7  	lbu	a5, -0x38d(a5)
80201ad8: 13 8e 07 00  	mv	t3, a5
80201adc: b7 27 da 80  	lui	a5, 0x80da2
80201ae0: 83 c7 37 c7  	lbu	a5, -0x38d(a5)
80201ae4: 13 83 07 00  	mv	t1, a5
80201ae8: b7 27 da 80  	lui	a5, 0x80da2
80201aec: 83 c7 37 c7  	lbu	a5, -0x38d(a5)
80201af0: 93 88 07 00  	mv	a7, a5
80201af4: b7 27 da 80  	lui	a5, 0x80da2
80201af8: 83 c7 37 c7  	lbu	a5, -0x38d(a5)
80201afc: 13 88 07 00  	mv	a6, a5
80201b00: 83 27 c4 fd  	lw	a5, -0x24(s0)
80201b04: 83 a5 07 fc  	lw	a1, -0x40(a5)
80201b08: 03 a6 c7 fb  	lw	a2, -0x44(a5)
80201b0c: 83 a6 87 fc  	lw	a3, -0x38(a5)
80201b10: 03 a7 47 fc  	lw	a4, -0x3c(a5)
80201b14: b7 07 30 80  	lui	a5, 0x80300
80201b18: 13 85 07 00  	mv	a0, a5
80201b1c: b7 47 0f 00  	lui	a5, 0xf4
80201b20: 93 87 c7 34  	addi	a5, a5, 0x34c
80201b24: b3 07 fe 02  	mul	a5, t3, a5
80201b28: b3 07 f5 00  	add	a5, a0, a5
80201b2c: 37 45 0f 00  	lui	a0, 0xf4
80201b30: b3 07 f5 00  	add	a5, a0, a5
80201b34: 23 ac b7 2a  	sw	a1, 0x2b8(a5)
80201b38: b7 07 30 80  	lui	a5, 0x80300
80201b3c: 93 85 07 00  	mv	a1, a5
80201b40: b7 47 0f 00  	lui	a5, 0xf4
80201b44: 93 87 c7 34  	addi	a5, a5, 0x34c
80201b48: b3 07 f3 02  	mul	a5, t1, a5
80201b4c: b3 87 f5 00  	add	a5, a1, a5
80201b50: b7 45 0f 00  	lui	a1, 0xf4
80201b54: b3 87 f5 00  	add	a5, a1, a5
80201b58: 23 ae c7 2a  	sw	a2, 0x2bc(a5)
80201b5c: b7 07 30 80  	lui	a5, 0x80300
80201b60: 13 86 07 00  	mv	a2, a5
80201b64: b7 47 0f 00  	lui	a5, 0xf4
80201b68: 93 87 c7 34  	addi	a5, a5, 0x34c
80201b6c: b3 87 f8 02  	mul	a5, a7, a5
80201b70: b3 07 f6 00  	add	a5, a2, a5
80201b74: 37 46 0f 00  	lui	a2, 0xf4
80201b78: b3 07 f6 00  	add	a5, a2, a5
80201b7c: 23 a8 d7 2a  	sw	a3, 0x2b0(a5)
80201b80: b7 07 30 80  	lui	a5, 0x80300
80201b84: 93 86 07 00  	mv	a3, a5
80201b88: b7 47 0f 00  	lui	a5, 0xf4
80201b8c: 93 87 c7 34  	addi	a5, a5, 0x34c
80201b90: b3 07 f8 02  	mul	a5, a6, a5
80201b94: b3 87 f6 00  	add	a5, a3, a5
80201b98: b7 46 0f 00  	lui	a3, 0xf4
80201b9c: b3 87 f6 00  	add	a5, a3, a5
80201ba0: 23 aa e7 2a  	sw	a4, 0x2b4(a5)
80201ba4: b7 27 da 80  	lui	a5, 0x80da2
80201ba8: 83 c7 37 c7  	lbu	a5, -0x38d(a5)
80201bac: 93 84 07 00  	mv	s1, a5
80201bb0: ef f0 cf 85  	jal	0x80200c0c <read_csr_sepc>
80201bb4: 93 06 05 00  	mv	a3, a0
80201bb8: b7 07 30 80  	lui	a5, 0x80300
80201bbc: 13 87 07 00  	mv	a4, a5
80201bc0: b7 47 0f 00  	lui	a5, 0xf4
80201bc4: 93 87 c7 34  	addi	a5, a5, 0x34c
80201bc8: b3 87 f4 02  	mul	a5, s1, a5
80201bcc: b3 07 f7 00  	add	a5, a4, a5
80201bd0: 37 47 0f 00  	lui	a4, 0xf4
80201bd4: b3 07 f7 00  	add	a5, a4, a5
80201bd8: 23 a0 d7 2c  	sw	a3, 0x2c0(a5)
80201bdc: 03 27 c4 fc  	lw	a4, -0x34(s0)
80201be0: b7 47 0f 00  	lui	a5, 0xf4
80201be4: b3 07 f7 00  	add	a5, a4, a5
80201be8: 13 07 20 00  	li	a4, 0x2
80201bec: 23 a2 e7 34  	sw	a4, 0x344(a5)
80201bf0: 93 07 00 00  	li	a5, 0x0
80201bf4: 13 85 07 00  	mv	a0, a5
80201bf8: 83 20 c1 03  	lw	ra, 0x3c(sp)
80201bfc: 03 24 81 03  	lw	s0, 0x38(sp)
80201c00: 83 24 41 03  	lw	s1, 0x34(sp)
80201c04: 03 29 01 03  	lw	s2, 0x30(sp)
80201c08: 83 29 c1 02  	lw	s3, 0x2c(sp)
80201c0c: 03 2a 81 02  	lw	s4, 0x28(sp)
80201c10: 13 01 01 04  	addi	sp, sp, 0x40
80201c14: 67 80 00 00  	ret

80201c18 <load_context>:
80201c18: 13 01 01 fe  	addi	sp, sp, -0x20
80201c1c: 23 2e 11 00  	sw	ra, 0x1c(sp)
80201c20: 23 2c 81 00  	sw	s0, 0x18(sp)
80201c24: 13 04 01 02  	addi	s0, sp, 0x20
80201c28: 23 26 a4 fe  	sw	a0, -0x14(s0)
80201c2c: 03 27 c4 fe  	lw	a4, -0x14(s0)
80201c30: b7 47 0f 00  	lui	a5, 0xf4
80201c34: b3 07 f7 00  	add	a5, a4, a5
80201c38: 83 a7 47 34  	lw	a5, 0x344(a5)
80201c3c: 63 96 07 00  	bnez	a5, 0x80201c48 <load_context+0x30>
80201c40: 93 07 10 00  	li	a5, 0x1
80201c44: 6f 00 c0 32  	j	0x80201f70 <load_context+0x358>
80201c48: b7 27 da 80  	lui	a5, 0x80da2
80201c4c: 83 c7 37 c7  	lbu	a5, -0x38d(a5)
80201c50: 93 86 07 00  	mv	a3, a5
80201c54: b7 07 30 80  	lui	a5, 0x80300
80201c58: 13 87 07 00  	mv	a4, a5
80201c5c: b7 47 0f 00  	lui	a5, 0xf4
80201c60: 93 87 c7 34  	addi	a5, a5, 0x34c
80201c64: b3 87 f6 02  	mul	a5, a3, a5
80201c68: b3 07 f7 00  	add	a5, a4, a5
80201c6c: 37 47 0f 00  	lui	a4, 0xf4
80201c70: b3 07 f7 00  	add	a5, a4, a5
80201c74: 03 a7 87 24  	lw	a4, 0x248(a5)
80201c78: b7 27 da 80  	lui	a5, 0x80da2
80201c7c: 83 c7 37 c7  	lbu	a5, -0x38d(a5)
80201c80: 13 86 07 00  	mv	a2, a5
80201c84: b7 07 30 80  	lui	a5, 0x80300
80201c88: 93 86 07 00  	mv	a3, a5
80201c8c: b7 47 0f 00  	lui	a5, 0xf4
80201c90: 93 87 c7 34  	addi	a5, a5, 0x34c
80201c94: b3 07 f6 02  	mul	a5, a2, a5
80201c98: b3 87 f6 00  	add	a5, a3, a5
80201c9c: b7 46 0f 00  	lui	a3, 0xf4
80201ca0: b3 87 f6 00  	add	a5, a3, a5
80201ca4: 83 a6 c7 24  	lw	a3, 0x24c(a5)
80201ca8: b7 27 da 80  	lui	a5, 0x80da2
80201cac: 83 c7 37 c7  	lbu	a5, -0x38d(a5)
80201cb0: 93 85 07 00  	mv	a1, a5
80201cb4: b7 07 30 80  	lui	a5, 0x80300
80201cb8: 13 86 07 00  	mv	a2, a5
80201cbc: b7 47 0f 00  	lui	a5, 0xf4
80201cc0: 93 87 c7 34  	addi	a5, a5, 0x34c
80201cc4: b3 87 f5 02  	mul	a5, a1, a5
80201cc8: b3 07 f6 00  	add	a5, a2, a5
80201ccc: 37 46 0f 00  	lui	a2, 0xf4
80201cd0: b3 07 f6 00  	add	a5, a2, a5
80201cd4: 03 a6 07 25  	lw	a2, 0x250(a5)
80201cd8: b7 27 da 80  	lui	a5, 0x80da2
80201cdc: 83 c7 37 c7  	lbu	a5, -0x38d(a5)
80201ce0: 13 85 07 00  	mv	a0, a5
80201ce4: b7 07 30 80  	lui	a5, 0x80300
80201ce8: 93 85 07 00  	mv	a1, a5
80201cec: b7 47 0f 00  	lui	a5, 0xf4
80201cf0: 93 87 c7 34  	addi	a5, a5, 0x34c
80201cf4: b3 07 f5 02  	mul	a5, a0, a5
80201cf8: b3 87 f5 00  	add	a5, a1, a5
80201cfc: b7 45 0f 00  	lui	a1, 0xf4
80201d00: b3 87 f5 00  	add	a5, a1, a5
80201d04: 83 a5 47 26  	lw	a1, 0x264(a5)
80201d08: b7 27 da 80  	lui	a5, 0x80da2
80201d0c: 83 c7 37 c7  	lbu	a5, -0x38d(a5)
80201d10: 13 88 07 00  	mv	a6, a5
80201d14: b7 07 30 80  	lui	a5, 0x80300
80201d18: 13 85 07 00  	mv	a0, a5
80201d1c: b7 47 0f 00  	lui	a5, 0xf4
80201d20: 93 87 c7 34  	addi	a5, a5, 0x34c
80201d24: b3 07 f8 02  	mul	a5, a6, a5
80201d28: b3 07 f5 00  	add	a5, a0, a5
80201d2c: 37 45 0f 00  	lui	a0, 0xf4
80201d30: b3 07 f5 00  	add	a5, a0, a5
80201d34: 03 a5 87 28  	lw	a0, 0x288(a5)
80201d38: b7 27 da 80  	lui	a5, 0x80da2
80201d3c: 83 c7 37 c7  	lbu	a5, -0x38d(a5)
80201d40: 93 88 07 00  	mv	a7, a5
80201d44: b7 07 30 80  	lui	a5, 0x80300
80201d48: 13 88 07 00  	mv	a6, a5
80201d4c: b7 47 0f 00  	lui	a5, 0xf4
80201d50: 93 87 c7 34  	addi	a5, a5, 0x34c
80201d54: b3 87 f8 02  	mul	a5, a7, a5
80201d58: b3 07 f8 00  	add	a5, a6, a5
80201d5c: 37 48 0f 00  	lui	a6, 0xf4
80201d60: b3 07 f8 00  	add	a5, a6, a5
80201d64: 03 a8 c7 28  	lw	a6, 0x28c(a5)
80201d68: b7 27 da 80  	lui	a5, 0x80da2
80201d6c: 83 c7 37 c7  	lbu	a5, -0x38d(a5)
80201d70: 13 83 07 00  	mv	t1, a5
80201d74: b7 07 30 80  	lui	a5, 0x80300
80201d78: 93 88 07 00  	mv	a7, a5
80201d7c: b7 47 0f 00  	lui	a5, 0xf4
80201d80: 93 87 c7 34  	addi	a5, a5, 0x34c
80201d84: b3 07 f3 02  	mul	a5, t1, a5
80201d88: b3 87 f8 00  	add	a5, a7, a5
80201d8c: b7 48 0f 00  	lui	a7, 0xf4
80201d90: b3 87 f8 00  	add	a5, a7, a5
80201d94: 83 a8 07 29  	lw	a7, 0x290(a5)
80201d98: b7 27 da 80  	lui	a5, 0x80da2
80201d9c: 83 c7 37 c7  	lbu	a5, -0x38d(a5)
80201da0: 13 8e 07 00  	mv	t3, a5
80201da4: b7 07 30 80  	lui	a5, 0x80300
80201da8: 13 83 07 00  	mv	t1, a5
80201dac: b7 47 0f 00  	lui	a5, 0xf4
80201db0: 93 87 c7 34  	addi	a5, a5, 0x34c
80201db4: b3 07 fe 02  	mul	a5, t3, a5
80201db8: b3 07 f3 00  	add	a5, t1, a5
80201dbc: 37 43 0f 00  	lui	t1, 0xf4
80201dc0: b3 07 f3 00  	add	a5, t1, a5
80201dc4: 03 a3 47 29  	lw	t1, 0x294(a5)
80201dc8: b7 27 da 80  	lui	a5, 0x80da2
80201dcc: 83 c7 37 c7  	lbu	a5, -0x38d(a5)
80201dd0: 93 8e 07 00  	mv	t4, a5
80201dd4: b7 07 30 80  	lui	a5, 0x80300
80201dd8: 13 8e 07 00  	mv	t3, a5
80201ddc: b7 47 0f 00  	lui	a5, 0xf4
80201de0: 93 87 c7 34  	addi	a5, a5, 0x34c
80201de4: b3 87 fe 02  	mul	a5, t4, a5
80201de8: b3 07 fe 00  	add	a5, t3, a5
80201dec: 37 4e 0f 00  	lui	t3, 0xf4
80201df0: b3 07 fe 00  	add	a5, t3, a5
80201df4: 03 ae 87 29  	lw	t3, 0x298(a5)
80201df8: b7 27 da 80  	lui	a5, 0x80da2
80201dfc: 83 c7 37 c7  	lbu	a5, -0x38d(a5)
80201e00: 13 8f 07 00  	mv	t5, a5
80201e04: b7 07 30 80  	lui	a5, 0x80300
80201e08: 93 8e 07 00  	mv	t4, a5
80201e0c: b7 47 0f 00  	lui	a5, 0xf4
80201e10: 93 87 c7 34  	addi	a5, a5, 0x34c
80201e14: b3 07 ff 02  	mul	a5, t5, a5
80201e18: b3 87 fe 00  	add	a5, t4, a5
80201e1c: b7 4e 0f 00  	lui	t4, 0xf4
80201e20: b3 87 fe 00  	add	a5, t4, a5
80201e24: 83 a7 c7 29  	lw	a5, 0x29c(a5)
80201e28: 13 01 07 00  	mv	sp, a4
80201e2c: 93 81 06 00  	mv	gp, a3
80201e30: 13 02 06 00  	mv	tp, a2
80201e34: 93 84 05 00  	mv	s1, a1
80201e38: 13 09 05 00  	mv	s2, a0
80201e3c: 93 09 08 00  	mv	s3, a6
80201e40: 13 8a 08 00  	mv	s4, a7
80201e44: 93 0a 03 00  	mv	s5, t1
80201e48: 13 0b 0e 00  	mv	s6, t3
80201e4c: 93 8b 07 00  	mv	s7, a5
80201e50: b7 27 da 80  	lui	a5, 0x80da2
80201e54: 83 c7 37 c7  	lbu	a5, -0x38d(a5)
80201e58: 93 86 07 00  	mv	a3, a5
80201e5c: b7 07 30 80  	lui	a5, 0x80300
80201e60: 13 87 07 00  	mv	a4, a5
80201e64: b7 47 0f 00  	lui	a5, 0xf4
80201e68: 93 87 c7 34  	addi	a5, a5, 0x34c
80201e6c: b3 87 f6 02  	mul	a5, a3, a5
80201e70: b3 07 f7 00  	add	a5, a4, a5
80201e74: 37 47 0f 00  	lui	a4, 0xf4
80201e78: b3 07 f7 00  	add	a5, a4, a5
80201e7c: 03 a7 07 2a  	lw	a4, 0x2a0(a5)
80201e80: b7 27 da 80  	lui	a5, 0x80da2
80201e84: 83 c7 37 c7  	lbu	a5, -0x38d(a5)
80201e88: 13 86 07 00  	mv	a2, a5
80201e8c: b7 07 30 80  	lui	a5, 0x80300
80201e90: 93 86 07 00  	mv	a3, a5
80201e94: b7 47 0f 00  	lui	a5, 0xf4
80201e98: 93 87 c7 34  	addi	a5, a5, 0x34c
80201e9c: b3 07 f6 02  	mul	a5, a2, a5
80201ea0: b3 87 f6 00  	add	a5, a3, a5
80201ea4: b7 46 0f 00  	lui	a3, 0xf4
80201ea8: b3 87 f6 00  	add	a5, a3, a5
80201eac: 83 a6 47 2a  	lw	a3, 0x2a4(a5)
80201eb0: b7 27 da 80  	lui	a5, 0x80da2
80201eb4: 83 c7 37 c7  	lbu	a5, -0x38d(a5)
80201eb8: 93 85 07 00  	mv	a1, a5
80201ebc: b7 07 30 80  	lui	a5, 0x80300
80201ec0: 13 86 07 00  	mv	a2, a5
80201ec4: b7 47 0f 00  	lui	a5, 0xf4
80201ec8: 93 87 c7 34  	addi	a5, a5, 0x34c
80201ecc: b3 87 f5 02  	mul	a5, a1, a5
80201ed0: b3 07 f6 00  	add	a5, a2, a5
80201ed4: 37 46 0f 00  	lui	a2, 0xf4
80201ed8: b3 07 f6 00  	add	a5, a2, a5
80201edc: 03 a6 87 2a  	lw	a2, 0x2a8(a5)
80201ee0: b7 27 da 80  	lui	a5, 0x80da2
80201ee4: 83 c7 37 c7  	lbu	a5, -0x38d(a5)
80201ee8: 13 85 07 00  	mv	a0, a5
80201eec: b7 07 30 80  	lui	a5, 0x80300
80201ef0: 93 85 07 00  	mv	a1, a5
80201ef4: b7 47 0f 00  	lui	a5, 0xf4
80201ef8: 93 87 c7 34  	addi	a5, a5, 0x34c
80201efc: b3 07 f5 02  	mul	a5, a0, a5
80201f00: b3 87 f5 00  	add	a5, a1, a5
80201f04: b7 45 0f 00  	lui	a1, 0xf4
80201f08: b3 87 f5 00  	add	a5, a1, a5
80201f0c: 83 a7 c7 2a  	lw	a5, 0x2ac(a5)
80201f10: 13 0c 07 00  	mv	s8, a4
80201f14: 93 8c 06 00  	mv	s9, a3
80201f18: 13 0d 06 00  	mv	s10, a2
80201f1c: 93 8d 07 00  	mv	s11, a5
80201f20: b7 27 da 80  	lui	a5, 0x80da2
80201f24: 83 c7 37 c7  	lbu	a5, -0x38d(a5)
80201f28: 93 86 07 00  	mv	a3, a5
80201f2c: b7 07 30 80  	lui	a5, 0x80300
80201f30: 13 87 07 00  	mv	a4, a5
80201f34: b7 47 0f 00  	lui	a5, 0xf4
80201f38: 93 87 c7 34  	addi	a5, a5, 0x34c
80201f3c: b3 87 f6 02  	mul	a5, a3, a5
80201f40: b3 07 f7 00  	add	a5, a4, a5
80201f44: 37 47 0f 00  	lui	a4, 0xf4
80201f48: b3 07 f7 00  	add	a5, a4, a5
80201f4c: 83 a7 07 2c  	lw	a5, 0x2c0(a5)
80201f50: 13 85 07 00  	mv	a0, a5
80201f54: ef e0 5f ce  	jal	0x80200c38 <write_csr_sepc>
80201f58: 03 27 c4 fe  	lw	a4, -0x14(s0)
80201f5c: b7 47 0f 00  	lui	a5, 0xf4
80201f60: b3 07 f7 00  	add	a5, a4, a5
80201f64: 13 07 10 00  	li	a4, 0x1
80201f68: 23 a2 e7 34  	sw	a4, 0x344(a5)
80201f6c: 93 07 00 00  	li	a5, 0x0
80201f70: 13 85 07 00  	mv	a0, a5
80201f74: 83 20 c1 01  	lw	ra, 0x1c(sp)
80201f78: 03 24 81 01  	lw	s0, 0x18(sp)
80201f7c: 13 01 01 02  	addi	sp, sp, 0x20
80201f80: 67 80 00 00  	ret

80201f84 <prog1>:
80201f84: 13 01 01 fe  	addi	sp, sp, -0x20
80201f88: 23 2e 11 00  	sw	ra, 0x1c(sp)
80201f8c: 23 2c 81 00  	sw	s0, 0x18(sp)
80201f90: 13 04 01 02  	addi	s0, sp, 0x20
80201f94: 23 26 04 fe  	sw	zero, -0x14(s0)
80201f98: b7 27 da 80  	lui	a5, 0x80da2
80201f9c: 83 a7 87 c7  	lw	a5, -0x388(a5)
80201fa0: 93 85 07 00  	mv	a1, a5
80201fa4: b7 37 20 80  	lui	a5, 0x80203
80201fa8: 13 85 87 db  	addi	a0, a5, -0x248
80201fac: ef e0 0f b7  	jal	0x8020031c <uart_printf>
80201fb0: 83 27 c4 fe  	lw	a5, -0x14(s0)
80201fb4: 63 98 07 00  	bnez	a5, 0x80201fc4 <prog1+0x40>
80201fb8: b7 37 20 80  	lui	a5, 0x80203
80201fbc: 13 85 87 dc  	addi	a0, a5, -0x238
80201fc0: ef e0 cf b5  	jal	0x8020031c <uart_printf>
80201fc4: 83 27 c4 fe  	lw	a5, -0x14(s0)
80201fc8: 93 87 17 00  	addi	a5, a5, 0x1
80201fcc: 23 26 f4 fe  	sw	a5, -0x14(s0)
80201fd0: 6f f0 1f fe  	j	0x80201fb0 <prog1+0x2c>

80201fd4 <prog2>:
80201fd4: 13 01 01 fe  	addi	sp, sp, -0x20
80201fd8: 23 2e 11 00  	sw	ra, 0x1c(sp)
80201fdc: 23 2c 81 00  	sw	s0, 0x18(sp)
80201fe0: 13 04 01 02  	addi	s0, sp, 0x20
80201fe4: 23 17 04 fe  	sh	zero, -0x12(s0)
80201fe8: 83 57 e4 fe  	lhu	a5, -0x12(s0)
80201fec: 63 98 07 00  	bnez	a5, 0x80201ffc <prog2+0x28>
80201ff0: b7 37 20 80  	lui	a5, 0x80203
80201ff4: 13 85 07 de  	addi	a0, a5, -0x220
80201ff8: ef e0 4f b2  	jal	0x8020031c <uart_printf>
80201ffc: 83 57 e4 fe  	lhu	a5, -0x12(s0)
80202000: 93 87 17 00  	addi	a5, a5, 0x1
80202004: 23 17 f4 fe  	sh	a5, -0x12(s0)
80202008: 6f f0 1f fe  	j	0x80201fe8 <prog2+0x14>

8020200c <_exec>:
8020200c: 13 01 01 fd  	addi	sp, sp, -0x30
80202010: 23 26 11 02  	sw	ra, 0x2c(sp)
80202014: 23 24 81 02  	sw	s0, 0x28(sp)
80202018: 13 04 01 03  	addi	s0, sp, 0x30
8020201c: 93 07 05 00  	mv	a5, a0
80202020: 13 87 05 00  	mv	a4, a1
80202024: 23 2c c4 fc  	sw	a2, -0x28(s0)
80202028: a3 0f f4 fc  	sb	a5, -0x21(s0)
8020202c: 93 07 07 00  	mv	a5, a4
80202030: 23 0f f4 fc  	sb	a5, -0x22(s0)
80202034: 13 06 60 00  	li	a2, 0x6
80202038: b7 37 20 80  	lui	a5, 0x80203
8020203c: 93 85 87 df  	addi	a1, a5, -0x208
80202040: 03 25 84 fd  	lw	a0, -0x28(s0)
80202044: ef e0 1f b5  	jal	0x80200b94 <strncmp>
80202048: 93 07 05 00  	mv	a5, a0
8020204c: 63 84 07 04  	beqz	a5, 0x80202094 <_exec+0x88>
80202050: b7 27 20 80  	lui	a5, 0x80202
80202054: 93 86 47 f8  	addi	a3, a5, -0x7c
80202058: 03 47 e4 fd  	lbu	a4, -0x22(s0)
8020205c: 83 47 f4 fd  	lbu	a5, -0x21(s0)
80202060: 03 26 84 fd  	lw	a2, -0x28(s0)
80202064: 93 05 07 00  	mv	a1, a4
80202068: 13 85 07 00  	mv	a0, a5
8020206c: ef e0 df f5  	jal	0x80200fc8 <add_process>
80202070: 93 07 05 00  	mv	a5, a0
80202074: 23 07 f4 fe  	sb	a5, -0x12(s0)
80202078: 03 47 e4 fe  	lbu	a4, -0x12(s0)
8020207c: 93 07 20 00  	li	a5, 0x2
80202080: 63 12 f7 08  	bne	a4, a5, 0x80202104 <_exec+0xf8>
80202084: b7 37 20 80  	lui	a5, 0x80203
80202088: 13 85 07 e0  	addi	a0, a5, -0x200
8020208c: ef e0 0f a9  	jal	0x8020031c <uart_printf>
80202090: 6f 00 40 07  	j	0x80202104 <_exec+0xf8>
80202094: 13 06 60 00  	li	a2, 0x6
80202098: b7 37 20 80  	lui	a5, 0x80203
8020209c: 93 85 c7 e3  	addi	a1, a5, -0x1c4
802020a0: 03 25 84 fd  	lw	a0, -0x28(s0)
802020a4: ef e0 1f af  	jal	0x80200b94 <strncmp>
802020a8: 93 07 05 00  	mv	a5, a0
802020ac: 63 84 07 04  	beqz	a5, 0x802020f4 <_exec+0xe8>
802020b0: b7 27 20 80  	lui	a5, 0x80202
802020b4: 93 86 47 fd  	addi	a3, a5, -0x2c
802020b8: 03 47 e4 fd  	lbu	a4, -0x22(s0)
802020bc: 83 47 f4 fd  	lbu	a5, -0x21(s0)
802020c0: 03 26 84 fd  	lw	a2, -0x28(s0)
802020c4: 93 05 07 00  	mv	a1, a4
802020c8: 13 85 07 00  	mv	a0, a5
802020cc: ef e0 df ef  	jal	0x80200fc8 <add_process>
802020d0: 93 07 05 00  	mv	a5, a0
802020d4: a3 07 f4 fe  	sb	a5, -0x11(s0)
802020d8: 03 47 f4 fe  	lbu	a4, -0x11(s0)
802020dc: 93 07 20 00  	li	a5, 0x2
802020e0: 63 12 f7 02  	bne	a4, a5, 0x80202104 <_exec+0xf8>
802020e4: b7 37 20 80  	lui	a5, 0x80203
802020e8: 13 85 07 e0  	addi	a0, a5, -0x200
802020ec: ef e0 0f a3  	jal	0x8020031c <uart_printf>
802020f0: 6f 00 40 01  	j	0x80202104 <_exec+0xf8>
802020f4: 83 25 84 fd  	lw	a1, -0x28(s0)
802020f8: b7 37 20 80  	lui	a5, 0x80203
802020fc: 13 85 47 e4  	addi	a0, a5, -0x1bc
80202100: ef e0 cf a1  	jal	0x8020031c <uart_printf>
80202104: 83 20 c1 02  	lw	ra, 0x2c(sp)
80202108: 03 24 81 02  	lw	s0, 0x28(sp)
8020210c: 13 01 01 03  	addi	sp, sp, 0x30
80202110: 67 80 00 00  	ret

80202114 <_ps>:
80202114: 13 01 01 fe  	addi	sp, sp, -0x20
80202118: 23 2e 11 00  	sw	ra, 0x1c(sp)
8020211c: 23 2c 81 00  	sw	s0, 0x18(sp)
80202120: 13 04 01 02  	addi	s0, sp, 0x20
80202124: b7 27 da 80  	lui	a5, 0x80da2
80202128: 03 a7 87 c6  	lw	a4, -0x398(a5)
8020212c: 83 a7 c7 c6  	lw	a5, -0x394(a5)
80202130: 93 07 07 00  	mv	a5, a4
80202134: 93 85 07 00  	mv	a1, a5
80202138: b7 37 20 80  	lui	a5, 0x80203
8020213c: 13 85 c7 e5  	addi	a0, a5, -0x1a4
80202140: ef e0 cf 9d  	jal	0x8020031c <uart_printf>
80202144: b7 27 da 80  	lui	a5, 0x80da2
80202148: 83 c7 27 c7  	lbu	a5, -0x38e(a5)
8020214c: 63 82 07 0c  	beqz	a5, 0x80202210 <_ps+0xfc>
80202150: a3 07 04 fe  	sb	zero, -0x11(s0)
80202154: 6f 00 c0 0a  	j	0x80202200 <_ps+0xec>
80202158: 83 46 f4 fe  	lbu	a3, -0x11(s0)
8020215c: b7 07 30 80  	lui	a5, 0x80300
80202160: 13 87 07 00  	mv	a4, a5
80202164: b7 47 0f 00  	lui	a5, 0xf4
80202168: 93 87 c7 34  	addi	a5, a5, 0x34c
8020216c: b3 87 f6 02  	mul	a5, a3, a5
80202170: b3 07 f7 00  	add	a5, a4, a5
80202174: 37 47 0f 00  	lui	a4, 0xf4
80202178: b3 07 f7 00  	add	a5, a4, a5
8020217c: 03 a7 47 34  	lw	a4, 0x344(a5)
80202180: 93 07 10 00  	li	a5, 0x1
80202184: 63 18 f7 06  	bne	a4, a5, 0x802021f4 <_ps+0xe0>
80202188: 83 46 f4 fe  	lbu	a3, -0x11(s0)
8020218c: b7 07 30 80  	lui	a5, 0x80300
80202190: 13 87 07 00  	mv	a4, a5
80202194: b7 47 0f 00  	lui	a5, 0xf4
80202198: 93 87 c7 34  	addi	a5, a5, 0x34c
8020219c: b3 87 f6 02  	mul	a5, a3, a5
802021a0: b3 07 f7 00  	add	a5, a4, a5
802021a4: 37 47 0f 00  	lui	a4, 0xf4
802021a8: b3 07 f7 00  	add	a5, a4, a5
802021ac: 83 c7 87 34  	lbu	a5, 0x348(a5)
802021b0: 93 86 07 00  	mv	a3, a5
802021b4: 03 47 f4 fe  	lbu	a4, -0x11(s0)
802021b8: b7 47 0f 00  	lui	a5, 0xf4
802021bc: 93 87 c7 34  	addi	a5, a5, 0x34c
802021c0: 33 07 f7 02  	mul	a4, a4, a5
802021c4: b7 47 0f 00  	lui	a5, 0xf4
802021c8: 93 87 07 2c  	addi	a5, a5, 0x2c0
802021cc: 33 07 f7 00  	add	a4, a4, a5
802021d0: b7 07 30 80  	lui	a5, 0x80300
802021d4: 93 87 07 00  	mv	a5, a5
802021d8: b3 07 f7 00  	add	a5, a4, a5
802021dc: 93 87 47 00  	addi	a5, a5, 0x4
802021e0: 13 86 07 00  	mv	a2, a5
802021e4: 93 85 06 00  	mv	a1, a3
802021e8: b7 37 20 80  	lui	a5, 0x80203
802021ec: 13 85 07 e7  	addi	a0, a5, -0x190
802021f0: ef e0 cf 92  	jal	0x8020031c <uart_printf>
802021f4: 83 47 f4 fe  	lbu	a5, -0x11(s0)
802021f8: 93 87 17 00  	addi	a5, a5, 0x1
802021fc: a3 07 f4 fe  	sb	a5, -0x11(s0)
80202200: 03 47 f4 fe  	lbu	a4, -0x11(s0)
80202204: 93 07 70 00  	li	a5, 0x7
80202208: e3 f8 e7 f4  	bgeu	a5, a4, 0x80202158 <_ps+0x44>
8020220c: 6f 00 80 00  	j	0x80202214 <_ps+0x100>
80202210: 13 00 00 00  	nop
80202214: 83 20 c1 01  	lw	ra, 0x1c(sp)
80202218: 03 24 81 01  	lw	s0, 0x18(sp)
8020221c: 13 01 01 02  	addi	sp, sp, 0x20
80202220: 67 80 00 00  	ret

80202224 <move_sp_to_temp>:
80202224: 13 05 01 00  	mv	a0, sp
80202228: 13 00 00 00  	nop

8020222c <read_a0>:
8020222c: 13 01 01 fe  	addi	sp, sp, -0x20
80202230: 23 2e 81 00  	sw	s0, 0x1c(sp)
80202234: 13 04 01 02  	addi	s0, sp, 0x20
80202238: 23 26 04 fe  	sw	zero, -0x14(s0)
8020223c: 93 07 05 00  	mv	a5, a0
80202240: 23 26 f4 fe  	sw	a5, -0x14(s0)
80202244: 83 27 c4 fe  	lw	a5, -0x14(s0)
80202248: 13 85 07 00  	mv	a0, a5
8020224c: 03 24 c1 01  	lw	s0, 0x1c(sp)
80202250: 13 01 01 02  	addi	sp, sp, 0x20
80202254: 67 80 00 00  	ret

80202258 <read_s0>:
80202258: 13 01 01 fe  	addi	sp, sp, -0x20
8020225c: 23 2e 81 00  	sw	s0, 0x1c(sp)
80202260: 13 04 01 02  	addi	s0, sp, 0x20
80202264: 23 26 04 fe  	sw	zero, -0x14(s0)
80202268: 93 07 04 00  	mv	a5, s0
8020226c: 23 26 f4 fe  	sw	a5, -0x14(s0)
80202270: 83 27 c4 fe  	lw	a5, -0x14(s0)
80202274: 13 85 07 00  	mv	a0, a5
80202278: 03 24 c1 01  	lw	s0, 0x1c(sp)
8020227c: 13 01 01 02  	addi	sp, sp, 0x20
80202280: 67 80 00 00  	ret

80202284 <setup_keyboard_interrupt>:
80202284: 13 01 01 fe  	addi	sp, sp, -0x20
80202288: 23 2e 11 00  	sw	ra, 0x1c(sp)
8020228c: 23 2c 81 00  	sw	s0, 0x18(sp)
80202290: 13 04 01 02  	addi	s0, sp, 0x20
80202294: 93 07 05 00  	mv	a5, a0
80202298: 23 24 b4 fe  	sw	a1, -0x18(s0)
8020229c: 23 22 c4 fe  	sw	a2, -0x1c(s0)
802022a0: 23 17 f4 fe  	sh	a5, -0x12(s0)
802022a4: 83 57 e4 fe  	lhu	a5, -0x12(s0)
802022a8: 83 25 84 fe  	lw	a1, -0x18(s0)
802022ac: 13 85 07 00  	mv	a0, a5
802022b0: ef e0 8f e2  	jal	0x802008d8 <set_plic_source_pry>
802022b4: 83 57 e4 fe  	lhu	a5, -0x12(s0)
802022b8: 93 85 07 00  	mv	a1, a5
802022bc: 03 25 44 fe  	lw	a0, -0x1c(s0)
802022c0: ef e0 0f ec  	jal	0x80200980 <set_plic_source_int_en>
802022c4: 13 00 00 00  	nop
802022c8: 83 20 c1 01  	lw	ra, 0x1c(sp)
802022cc: 03 24 81 01  	lw	s0, 0x18(sp)
802022d0: 13 01 01 02  	addi	sp, sp, 0x20
802022d4: 67 80 00 00  	ret

802022d8 <truncate_buffer>:
802022d8: 13 01 01 fe  	addi	sp, sp, -0x20
802022dc: 23 2e 81 00  	sw	s0, 0x1c(sp)
802022e0: 13 04 01 02  	addi	s0, sp, 0x20
802022e4: b7 27 da 80  	lui	a5, 0x80da2
802022e8: 83 c7 d7 c7  	lbu	a5, -0x383(a5)
802022ec: 93 87 f7 ff  	addi	a5, a5, -0x1
802022f0: a3 07 f4 fe  	sb	a5, -0x11(s0)
802022f4: 6f 00 c0 03  	j	0x80202330 <truncate_buffer+0x58>
802022f8: 83 47 f4 fe  	lbu	a5, -0x11(s0)
802022fc: 13 87 17 00  	addi	a4, a5, 0x1
80202300: 83 47 f4 fe  	lbu	a5, -0x11(s0)
80202304: b7 26 aa 80  	lui	a3, 0x80aa2
80202308: 93 86 06 a6  	addi	a3, a3, -0x5a0
8020230c: 33 87 e6 00  	add	a4, a3, a4
80202310: 03 47 07 00  	lbu	a4, 0x0(a4)
80202314: b7 26 aa 80  	lui	a3, 0x80aa2
80202318: 93 86 06 a6  	addi	a3, a3, -0x5a0
8020231c: b3 87 f6 00  	add	a5, a3, a5
80202320: 23 80 e7 00  	sb	a4, 0x0(a5)
80202324: 83 47 f4 fe  	lbu	a5, -0x11(s0)
80202328: 93 87 17 00  	addi	a5, a5, 0x1
8020232c: a3 07 f4 fe  	sb	a5, -0x11(s0)
80202330: b7 27 da 80  	lui	a5, 0x80da2
80202334: 83 c7 c7 c7  	lbu	a5, -0x384(a5)
80202338: 03 47 f4 fe  	lbu	a4, -0x11(s0)
8020233c: e3 6e f7 fa  	bltu	a4, a5, 0x802022f8 <truncate_buffer+0x20>
80202340: 13 00 00 00  	nop
80202344: 13 00 00 00  	nop
80202348: 03 24 c1 01  	lw	s0, 0x1c(sp)
8020234c: 13 01 01 02  	addi	sp, sp, 0x20
80202350: 67 80 00 00  	ret

80202354 <subroutine_ctrl_p>:
80202354: 13 01 01 ff  	addi	sp, sp, -0x10
80202358: 23 26 11 00  	sw	ra, 0xc(sp)
8020235c: 23 24 81 00  	sw	s0, 0x8(sp)
80202360: 13 04 01 01  	addi	s0, sp, 0x10
80202364: b7 37 20 80  	lui	a5, 0x80203
80202368: 13 85 07 e8  	addi	a0, a5, -0x180
8020236c: ef d0 9f f5  	jal	0x802002c4 <uart_prints>
80202370: 13 00 00 00  	nop
80202374: 83 20 c1 00  	lw	ra, 0xc(sp)
80202378: 03 24 81 00  	lw	s0, 0x8(sp)
8020237c: 13 01 01 01  	addi	sp, sp, 0x10
80202380: 67 80 00 00  	ret

80202384 <subroutine_enter>:
80202384: 13 01 01 ff  	addi	sp, sp, -0x10
80202388: 23 26 11 00  	sw	ra, 0xc(sp)
8020238c: 23 24 81 00  	sw	s0, 0x8(sp)
80202390: 13 04 01 01  	addi	s0, sp, 0x10
80202394: 13 05 a0 00  	li	a0, 0xa
80202398: ef d0 9f ef  	jal	0x80200290 <uart_putchar>
8020239c: 13 05 d0 00  	li	a0, 0xd
802023a0: ef d0 1f ef  	jal	0x80200290 <uart_putchar>
802023a4: b7 27 da 80  	lui	a5, 0x80da2
802023a8: 83 c7 c7 c7  	lbu	a5, -0x384(a5)
802023ac: 13 87 17 00  	addi	a4, a5, 0x1
802023b0: 93 76 f7 0f  	andi	a3, a4, 0xff
802023b4: 37 27 da 80  	lui	a4, 0x80da2
802023b8: 23 0e d7 c6  	sb	a3, -0x384(a4)
802023bc: 13 87 07 00  	mv	a4, a5
802023c0: b7 27 aa 80  	lui	a5, 0x80aa2
802023c4: 93 87 07 a6  	addi	a5, a5, -0x5a0
802023c8: b3 87 e7 00  	add	a5, a5, a4
802023cc: 23 80 07 00  	sb	zero, 0x0(a5)
802023d0: b7 27 da 80  	lui	a5, 0x80da2
802023d4: 83 c7 c7 c7  	lbu	a5, -0x384(a5)
802023d8: 13 86 07 00  	mv	a2, a5
802023dc: b7 27 aa 80  	lui	a5, 0x80aa2
802023e0: 93 85 07 a6  	addi	a1, a5, -0x5a0
802023e4: b7 27 aa 80  	lui	a5, 0x80aa2
802023e8: 13 85 07 b6  	addi	a0, a5, -0x4a0
802023ec: ef e0 8f ef  	jal	0x80200ae4 <strncpy>
802023f0: b7 27 da 80  	lui	a5, 0x80da2
802023f4: 23 8e 07 c6  	sb	zero, -0x384(a5)
802023f8: b7 27 da 80  	lui	a5, 0x80da2
802023fc: a3 8e 07 c6  	sb	zero, -0x383(a5)
80202400: 13 06 50 00  	li	a2, 0x5
80202404: b7 37 20 80  	lui	a5, 0x80203
80202408: 93 85 07 e9  	addi	a1, a5, -0x170
8020240c: b7 27 aa 80  	lui	a5, 0x80aa2
80202410: 13 85 07 b6  	addi	a0, a5, -0x4a0
80202414: ef e0 0f f8  	jal	0x80200b94 <strncmp>
80202418: 93 07 05 00  	mv	a5, a0
8020241c: 63 86 07 04  	beqz	a5, 0x80202468 <subroutine_enter+0xe4>
80202420: b7 37 20 80  	lui	a5, 0x80203
80202424: 13 85 87 e9  	addi	a0, a5, -0x168
80202428: ef d0 df e9  	jal	0x802002c4 <uart_prints>
8020242c: b7 27 da 80  	lui	a5, 0x80da2
80202430: 83 c7 17 c7  	lbu	a5, -0x38f(a5)
80202434: 93 87 17 00  	addi	a5, a5, 0x1
80202438: 13 f7 f7 0f  	andi	a4, a5, 0xff
8020243c: b7 27 da 80  	lui	a5, 0x80da2
80202440: a3 88 e7 c6  	sb	a4, -0x38f(a5)
80202444: b7 27 da 80  	lui	a5, 0x80da2
80202448: 03 c7 17 c7  	lbu	a4, -0x38f(a5)
8020244c: b7 27 aa 80  	lui	a5, 0x80aa2
80202450: 93 87 57 b6  	addi	a5, a5, -0x49b
80202454: 13 86 07 00  	mv	a2, a5
80202458: 93 05 a0 00  	li	a1, 0xa
8020245c: 13 05 07 00  	mv	a0, a4
80202460: ef f0 df ba  	jal	0x8020200c <_exec>
80202464: 6f 00 c0 03  	j	0x802024a0 <subroutine_enter+0x11c>
80202468: 13 06 20 00  	li	a2, 0x2
8020246c: b7 37 20 80  	lui	a5, 0x80203
80202470: 93 85 47 eb  	addi	a1, a5, -0x14c
80202474: b7 27 aa 80  	lui	a5, 0x80aa2
80202478: 13 85 07 b6  	addi	a0, a5, -0x4a0
8020247c: ef e0 8f f1  	jal	0x80200b94 <strncmp>
80202480: 93 07 05 00  	mv	a5, a0
80202484: 63 8e 07 00  	beqz	a5, 0x802024a0 <subroutine_enter+0x11c>
80202488: b7 27 aa 80  	lui	a5, 0x80aa2
8020248c: 93 87 07 b6  	addi	a5, a5, -0x4a0
80202490: 83 c7 27 00  	lbu	a5, 0x2(a5)
80202494: 63 96 07 00  	bnez	a5, 0x802024a0 <subroutine_enter+0x11c>
80202498: ef f0 df c7  	jal	0x80202114 <_ps>
8020249c: 13 00 00 00  	nop
802024a0: 83 20 c1 00  	lw	ra, 0xc(sp)
802024a4: 03 24 81 00  	lw	s0, 0x8(sp)
802024a8: 13 01 01 01  	addi	sp, sp, 0x10
802024ac: 67 80 00 00  	ret

802024b0 <subroutine_backspace>:
802024b0: 13 01 01 ff  	addi	sp, sp, -0x10
802024b4: 23 26 11 00  	sw	ra, 0xc(sp)
802024b8: 23 24 81 00  	sw	s0, 0x8(sp)
802024bc: 13 04 01 01  	addi	s0, sp, 0x10
802024c0: 13 05 80 00  	li	a0, 0x8
802024c4: ef d0 df dc  	jal	0x80200290 <uart_putchar>
802024c8: 13 05 00 02  	li	a0, 0x20
802024cc: ef d0 5f dc  	jal	0x80200290 <uart_putchar>
802024d0: 13 05 80 00  	li	a0, 0x8
802024d4: ef d0 df db  	jal	0x80200290 <uart_putchar>
802024d8: 13 05 00 00  	li	a0, 0x0
802024dc: ef d0 5f db  	jal	0x80200290 <uart_putchar>
802024e0: b7 27 da 80  	lui	a5, 0x80da2
802024e4: 83 c7 d7 c7  	lbu	a5, -0x383(a5)
802024e8: 37 27 da 80  	lui	a4, 0x80da2
802024ec: 03 47 d7 c7  	lbu	a4, -0x383(a4)
802024f0: 33 37 e0 00  	snez	a4, a4
802024f4: 13 77 f7 0f  	andi	a4, a4, 0xff
802024f8: b3 87 e7 40  	sub	a5, a5, a4
802024fc: 13 f7 f7 0f  	andi	a4, a5, 0xff
80202500: b7 27 da 80  	lui	a5, 0x80da2
80202504: a3 8e e7 c6  	sb	a4, -0x383(a5)
80202508: b7 27 da 80  	lui	a5, 0x80da2
8020250c: 83 c7 c7 c7  	lbu	a5, -0x384(a5)
80202510: 37 27 da 80  	lui	a4, 0x80da2
80202514: 03 47 c7 c7  	lbu	a4, -0x384(a4)
80202518: 33 37 e0 00  	snez	a4, a4
8020251c: 13 77 f7 0f  	andi	a4, a4, 0xff
80202520: b3 87 e7 40  	sub	a5, a5, a4
80202524: 13 f7 f7 0f  	andi	a4, a5, 0xff
80202528: b7 27 da 80  	lui	a5, 0x80da2
8020252c: 23 8e e7 c6  	sb	a4, -0x384(a5)
80202530: 13 00 00 00  	nop
80202534: 83 20 c1 00  	lw	ra, 0xc(sp)
80202538: 03 24 81 00  	lw	s0, 0x8(sp)
8020253c: 13 01 01 01  	addi	sp, sp, 0x10
80202540: 67 80 00 00  	ret

80202544 <subroutine_left>:
80202544: 13 01 01 ff  	addi	sp, sp, -0x10
80202548: 23 26 81 00  	sw	s0, 0xc(sp)
8020254c: 13 04 01 01  	addi	s0, sp, 0x10
80202550: b7 27 da 80  	lui	a5, 0x80da2
80202554: 83 c7 d7 c7  	lbu	a5, -0x383(a5)
80202558: 37 27 da 80  	lui	a4, 0x80da2
8020255c: 03 47 d7 c7  	lbu	a4, -0x383(a4)
80202560: 33 37 e0 00  	snez	a4, a4
80202564: 13 77 f7 0f  	andi	a4, a4, 0xff
80202568: b3 87 e7 40  	sub	a5, a5, a4
8020256c: 13 f7 f7 0f  	andi	a4, a5, 0xff
80202570: b7 27 da 80  	lui	a5, 0x80da2
80202574: a3 8e e7 c6  	sb	a4, -0x383(a5)
80202578: 13 00 00 00  	nop
8020257c: 03 24 c1 00  	lw	s0, 0xc(sp)
80202580: 13 01 01 01  	addi	sp, sp, 0x10
80202584: 67 80 00 00  	ret

80202588 <subroutine_non_special_key>:
80202588: 13 01 01 fe  	addi	sp, sp, -0x20
8020258c: 23 2e 11 00  	sw	ra, 0x1c(sp)
80202590: 23 2c 81 00  	sw	s0, 0x18(sp)
80202594: 13 04 01 02  	addi	s0, sp, 0x20
80202598: 93 07 05 00  	mv	a5, a0
8020259c: a3 07 f4 fe  	sb	a5, -0x11(s0)
802025a0: 83 47 f4 fe  	lbu	a5, -0x11(s0)
802025a4: 13 85 07 00  	mv	a0, a5
802025a8: ef d0 9f ce  	jal	0x80200290 <uart_putchar>
802025ac: 13 00 00 00  	nop
802025b0: 83 20 c1 01  	lw	ra, 0x1c(sp)
802025b4: 03 24 81 01  	lw	s0, 0x18(sp)
802025b8: 13 01 01 02  	addi	sp, sp, 0x20
802025bc: 67 80 00 00  	ret

802025c0 <process_keys>:
802025c0: 13 01 01 fe  	addi	sp, sp, -0x20
802025c4: 23 2e 11 00  	sw	ra, 0x1c(sp)
802025c8: 23 2c 81 00  	sw	s0, 0x18(sp)
802025cc: 13 04 01 02  	addi	s0, sp, 0x20
802025d0: 93 07 05 00  	mv	a5, a0
802025d4: a3 07 f4 fe  	sb	a5, -0x11(s0)
802025d8: 83 47 f4 fe  	lbu	a5, -0x11(s0)
802025dc: 13 07 00 01  	li	a4, 0x10
802025e0: 63 80 e7 02  	beq	a5, a4, 0x80202600 <process_keys+0x40>
802025e4: 13 07 00 01  	li	a4, 0x10
802025e8: 63 48 f7 02  	blt	a4, a5, 0x80202618 <process_keys+0x58>
802025ec: 13 07 80 00  	li	a4, 0x8
802025f0: 63 80 e7 02  	beq	a5, a4, 0x80202610 <process_keys+0x50>
802025f4: 13 07 d0 00  	li	a4, 0xd
802025f8: 63 88 e7 00  	beq	a5, a4, 0x80202608 <process_keys+0x48>
802025fc: 6f 00 c0 01  	j	0x80202618 <process_keys+0x58>
80202600: ef f0 5f d5  	jal	0x80202354 <subroutine_ctrl_p>
80202604: 6f 00 c0 07  	j	0x80202680 <process_keys+0xc0>
80202608: ef f0 df d7  	jal	0x80202384 <subroutine_enter>
8020260c: 6f 00 40 07  	j	0x80202680 <process_keys+0xc0>
80202610: ef f0 1f ea  	jal	0x802024b0 <subroutine_backspace>
80202614: 6f 00 c0 06  	j	0x80202680 <process_keys+0xc0>
80202618: b7 27 da 80  	lui	a5, 0x80da2
8020261c: 03 c7 c7 c7  	lbu	a4, -0x384(a5)
80202620: 93 07 f0 0f  	li	a5, 0xff
80202624: 63 06 f7 04  	beq	a4, a5, 0x80202670 <process_keys+0xb0>
80202628: b7 27 da 80  	lui	a5, 0x80da2
8020262c: 83 c7 c7 c7  	lbu	a5, -0x384(a5)
80202630: 93 87 17 00  	addi	a5, a5, 0x1
80202634: 13 f7 f7 0f  	andi	a4, a5, 0xff
80202638: b7 27 da 80  	lui	a5, 0x80da2
8020263c: 23 8e e7 c6  	sb	a4, -0x384(a5)
80202640: b7 27 da 80  	lui	a5, 0x80da2
80202644: 83 c7 d7 c7  	lbu	a5, -0x383(a5)
80202648: 13 87 17 00  	addi	a4, a5, 0x1
8020264c: 93 76 f7 0f  	andi	a3, a4, 0xff
80202650: 37 27 da 80  	lui	a4, 0x80da2
80202654: a3 0e d7 c6  	sb	a3, -0x383(a4)
80202658: 13 87 07 00  	mv	a4, a5
8020265c: b7 27 aa 80  	lui	a5, 0x80aa2
80202660: 93 87 07 a6  	addi	a5, a5, -0x5a0
80202664: b3 87 e7 00  	add	a5, a5, a4
80202668: 03 47 f4 fe  	lbu	a4, -0x11(s0)
8020266c: 23 80 e7 00  	sb	a4, 0x0(a5)
80202670: 83 47 f4 fe  	lbu	a5, -0x11(s0)
80202674: 13 85 07 00  	mv	a0, a5
80202678: ef f0 1f f1  	jal	0x80202588 <subroutine_non_special_key>
8020267c: 13 00 00 00  	nop
80202680: 13 00 00 00  	nop
80202684: 83 20 c1 01  	lw	ra, 0x1c(sp)
80202688: 03 24 81 01  	lw	s0, 0x18(sp)
8020268c: 13 01 01 02  	addi	sp, sp, 0x20
80202690: 67 80 00 00  	ret

80202694 <read_csr_sepc>:
80202694: 13 01 01 fe  	addi	sp, sp, -0x20
80202698: 23 2e 81 00  	sw	s0, 0x1c(sp)
8020269c: 13 04 01 02  	addi	s0, sp, 0x20
802026a0: 23 26 04 fe  	sw	zero, -0x14(s0)
802026a4: f3 27 10 14  	csrr	a5, sepc
802026a8: 23 26 f4 fe  	sw	a5, -0x14(s0)
802026ac: 83 27 c4 fe  	lw	a5, -0x14(s0)
802026b0: 13 85 07 00  	mv	a0, a5
802026b4: 03 24 c1 01  	lw	s0, 0x1c(sp)
802026b8: 13 01 01 02  	addi	sp, sp, 0x20
802026bc: 67 80 00 00  	ret

802026c0 <clear_bit_csr_sstatus>:
802026c0: 13 01 01 fe  	addi	sp, sp, -0x20
802026c4: 23 2e 81 00  	sw	s0, 0x1c(sp)
802026c8: 13 04 01 02  	addi	s0, sp, 0x20
802026cc: 23 26 a4 fe  	sw	a0, -0x14(s0)
802026d0: 83 27 c4 fe  	lw	a5, -0x14(s0)
802026d4: 73 b0 07 10  	csrc	sstatus, a5
802026d8: 13 00 00 00  	nop
802026dc: 03 24 c1 01  	lw	s0, 0x1c(sp)
802026e0: 13 01 01 02  	addi	sp, sp, 0x20
802026e4: 67 80 00 00  	ret

802026e8 <read_csr_sstatus>:
802026e8: 13 01 01 fe  	addi	sp, sp, -0x20
802026ec: 23 2e 81 00  	sw	s0, 0x1c(sp)
802026f0: 13 04 01 02  	addi	s0, sp, 0x20
802026f4: 23 26 04 fe  	sw	zero, -0x14(s0)
802026f8: f3 27 00 10  	csrr	a5, sstatus
802026fc: 23 26 f4 fe  	sw	a5, -0x14(s0)
80202700: 83 27 c4 fe  	lw	a5, -0x14(s0)
80202704: 13 85 07 00  	mv	a0, a5
80202708: 03 24 c1 01  	lw	s0, 0x1c(sp)
8020270c: 13 01 01 02  	addi	sp, sp, 0x20
80202710: 67 80 00 00  	ret

80202714 <write_csr_sie>:
80202714: 13 01 01 fe  	addi	sp, sp, -0x20
80202718: 23 2e 81 00  	sw	s0, 0x1c(sp)
8020271c: 13 04 01 02  	addi	s0, sp, 0x20
80202720: 23 26 a4 fe  	sw	a0, -0x14(s0)
80202724: 83 27 c4 fe  	lw	a5, -0x14(s0)
80202728: 73 90 47 10  	csrw	sie, a5
8020272c: 13 00 00 00  	nop
80202730: 03 24 c1 01  	lw	s0, 0x1c(sp)
80202734: 13 01 01 02  	addi	sp, sp, 0x20
80202738: 67 80 00 00  	ret

8020273c <write_csr_sstatus>:
8020273c: 13 01 01 fe  	addi	sp, sp, -0x20
80202740: 23 2e 81 00  	sw	s0, 0x1c(sp)
80202744: 13 04 01 02  	addi	s0, sp, 0x20
80202748: 23 26 a4 fe  	sw	a0, -0x14(s0)
8020274c: 83 27 c4 fe  	lw	a5, -0x14(s0)
80202750: 73 90 07 10  	csrw	sstatus, a5
80202754: 13 00 00 00  	nop
80202758: 03 24 c1 01  	lw	s0, 0x1c(sp)
8020275c: 13 01 01 02  	addi	sp, sp, 0x20
80202760: 67 80 00 00  	ret

80202764 <write_csr_stvec>:
80202764: 13 01 01 fe  	addi	sp, sp, -0x20
80202768: 23 2e 81 00  	sw	s0, 0x1c(sp)
8020276c: 13 04 01 02  	addi	s0, sp, 0x20
80202770: 23 26 a4 fe  	sw	a0, -0x14(s0)
80202774: 83 27 c4 fe  	lw	a5, -0x14(s0)
80202778: 73 90 57 10  	csrw	stvec, a5
8020277c: 13 00 00 00  	nop
80202780: 03 24 c1 01  	lw	s0, 0x1c(sp)
80202784: 13 01 01 02  	addi	sp, sp, 0x20
80202788: 67 80 00 00  	ret

8020278c <write_csr_satp>:
8020278c: 13 01 01 fe  	addi	sp, sp, -0x20
80202790: 23 2e 81 00  	sw	s0, 0x1c(sp)
80202794: 13 04 01 02  	addi	s0, sp, 0x20
80202798: 23 26 a4 fe  	sw	a0, -0x14(s0)
8020279c: 83 27 c4 fe  	lw	a5, -0x14(s0)
802027a0: 73 90 07 18  	csrw	satp, a5
802027a4: 13 00 00 00  	nop
802027a8: 03 24 c1 01  	lw	s0, 0x1c(sp)
802027ac: 13 01 01 02  	addi	sp, sp, 0x20
802027b0: 67 80 00 00  	ret

802027b4 <move_sp_to_temp>:
802027b4: 13 05 01 00  	mv	a0, sp
802027b8: 13 00 00 00  	nop

802027bc <read_a0>:
802027bc: 13 01 01 fe  	addi	sp, sp, -0x20
802027c0: 23 2e 81 00  	sw	s0, 0x1c(sp)
802027c4: 13 04 01 02  	addi	s0, sp, 0x20
802027c8: 23 26 04 fe  	sw	zero, -0x14(s0)
802027cc: 93 07 05 00  	mv	a5, a0
802027d0: 23 26 f4 fe  	sw	a5, -0x14(s0)
802027d4: 83 27 c4 fe  	lw	a5, -0x14(s0)
802027d8: 13 85 07 00  	mv	a0, a5
802027dc: 03 24 c1 01  	lw	s0, 0x1c(sp)
802027e0: 13 01 01 02  	addi	sp, sp, 0x20
802027e4: 67 80 00 00  	ret

802027e8 <read_s0>:
802027e8: 13 01 01 fe  	addi	sp, sp, -0x20
802027ec: 23 2e 81 00  	sw	s0, 0x1c(sp)
802027f0: 13 04 01 02  	addi	s0, sp, 0x20
802027f4: 23 26 04 fe  	sw	zero, -0x14(s0)
802027f8: 93 07 04 00  	mv	a5, s0
802027fc: 23 26 f4 fe  	sw	a5, -0x14(s0)
80202800: 83 27 c4 fe  	lw	a5, -0x14(s0)
80202804: 13 85 07 00  	mv	a0, a5
80202808: 03 24 c1 01  	lw	s0, 0x1c(sp)
8020280c: 13 01 01 02  	addi	sp, sp, 0x20
80202810: 67 80 00 00  	ret

80202814 <setup_timer_int_csrs>:
80202814: 13 01 01 fe  	addi	sp, sp, -0x20
80202818: 23 2e 11 00  	sw	ra, 0x1c(sp)
8020281c: 23 2c 81 00  	sw	s0, 0x18(sp)
80202820: 13 04 01 02  	addi	s0, sp, 0x20
80202824: 23 26 a4 fe  	sw	a0, -0x14(s0)
80202828: ef d0 1f f7  	jal	0x80200798 <get_mtime>
8020282c: 03 25 c4 fe  	lw	a0, -0x14(s0)
80202830: ef d0 5f fa  	jal	0x802007d4 <set_mtimecmp>
80202834: 13 00 00 00  	nop
80202838: 83 20 c1 01  	lw	ra, 0x1c(sp)
8020283c: 03 24 81 01  	lw	s0, 0x18(sp)
80202840: 13 01 01 02  	addi	sp, sp, 0x20
80202844: 67 80 00 00  	ret

80202848 <reset_system_interrupts>:
80202848: 13 01 01 ff  	addi	sp, sp, -0x10
8020284c: 23 26 11 00  	sw	ra, 0xc(sp)
80202850: 23 24 81 00  	sw	s0, 0x8(sp)
80202854: 13 04 01 01  	addi	s0, sp, 0x10
80202858: 13 05 20 00  	li	a0, 0x2
8020285c: ef f0 5f e6  	jal	0x802026c0 <clear_bit_csr_sstatus>
80202860: 13 05 00 00  	li	a0, 0x0
80202864: ef f0 1f eb  	jal	0x80202714 <write_csr_sie>
80202868: 13 05 00 00  	li	a0, 0x0
8020286c: ef f0 1f f2  	jal	0x8020278c <write_csr_satp>
80202870: 13 00 00 00  	nop
80202874: 83 20 c1 00  	lw	ra, 0xc(sp)
80202878: 03 24 81 00  	lw	s0, 0x8(sp)
8020287c: 13 01 01 01  	addi	sp, sp, 0x10
80202880: 67 80 00 00  	ret

80202884 <reset_plic_interrupts>:
80202884: 13 01 01 ff  	addi	sp, sp, -0x10
80202888: 23 26 11 00  	sw	ra, 0xc(sp)
8020288c: 23 24 81 00  	sw	s0, 0x8(sp)
80202890: 13 04 01 01  	addi	s0, sp, 0x10
80202894: ef d0 5f fb  	jal	0x80200848 <reset_all_plic_source_pry>
80202898: b7 27 00 00  	lui	a5, 0x2
8020289c: 13 85 07 08  	addi	a0, a5, 0x80
802028a0: ef e0 0f 88  	jal	0x80200920 <reset_all_plic_int_en>
802028a4: 37 15 20 00  	lui	a0, 0x201
802028a8: ef e0 8f 95  	jal	0x80200a00 <reset_plic_pry_trsh>
802028ac: 13 00 00 00  	nop
802028b0: 83 20 c1 00  	lw	ra, 0xc(sp)
802028b4: 03 24 81 00  	lw	s0, 0x8(sp)
802028b8: 13 01 01 01  	addi	sp, sp, 0x10
802028bc: 67 80 00 00  	ret

802028c0 <reset_interrupts>:
802028c0: 13 01 01 ff  	addi	sp, sp, -0x10
802028c4: 23 26 11 00  	sw	ra, 0xc(sp)
802028c8: 23 24 81 00  	sw	s0, 0x8(sp)
802028cc: 13 04 01 01  	addi	s0, sp, 0x10
802028d0: ef f0 9f f7  	jal	0x80202848 <reset_system_interrupts>
802028d4: ef f0 1f fb  	jal	0x80202884 <reset_plic_interrupts>
802028d8: 13 00 00 00  	nop
802028dc: 83 20 c1 00  	lw	ra, 0xc(sp)
802028e0: 03 24 81 00  	lw	s0, 0x8(sp)
802028e4: 13 01 01 01  	addi	sp, sp, 0x10
802028e8: 67 80 00 00  	ret

802028ec <system_interrupts_init>:
802028ec: 13 01 01 fe  	addi	sp, sp, -0x20
802028f0: 23 2e 11 00  	sw	ra, 0x1c(sp)
802028f4: 23 2c 81 00  	sw	s0, 0x18(sp)
802028f8: 13 04 01 02  	addi	s0, sp, 0x20
802028fc: 23 26 a4 fe  	sw	a0, -0x14(s0)
80202900: b7 37 20 80  	lui	a5, 0x80203
80202904: 93 87 07 bc  	addi	a5, a5, -0x440
80202908: 93 e7 17 00  	ori	a5, a5, 0x1
8020290c: 13 85 07 00  	mv	a0, a5
80202910: ef f0 5f e5  	jal	0x80202764 <write_csr_stvec>
80202914: 03 25 c4 fe  	lw	a0, -0x14(s0)
80202918: ef f0 df df  	jal	0x80202714 <write_csr_sie>
8020291c: ef f0 df dc  	jal	0x802026e8 <read_csr_sstatus>
80202920: 93 07 05 00  	mv	a5, a0
80202924: 93 e7 27 00  	ori	a5, a5, 0x2
80202928: 13 85 07 00  	mv	a0, a5
8020292c: ef f0 1f e1  	jal	0x8020273c <write_csr_sstatus>
80202930: 13 00 00 00  	nop
80202934: 83 20 c1 01  	lw	ra, 0x1c(sp)
80202938: 03 24 81 01  	lw	s0, 0x18(sp)
8020293c: 13 01 01 02  	addi	sp, sp, 0x20
80202940: 67 80 00 00  	ret

80202944 <plic_interrupts_init>:
80202944: 13 01 01 ff  	addi	sp, sp, -0x10
80202948: 23 26 11 00  	sw	ra, 0xc(sp)
8020294c: 23 24 81 00  	sw	s0, 0x8(sp)
80202950: 13 04 01 01  	addi	s0, sp, 0x10
80202954: 93 05 10 00  	li	a1, 0x1
80202958: 37 15 20 00  	lui	a0, 0x201
8020295c: ef e0 8f 8d  	jal	0x80200a34 <set_plic_pry_trsh>
80202960: b7 27 00 00  	lui	a5, 0x2
80202964: 13 86 07 08  	addi	a2, a5, 0x80
80202968: 93 05 70 00  	li	a1, 0x7
8020296c: 13 05 a0 00  	li	a0, 0xa
80202970: ef f0 5f 91  	jal	0x80202284 <setup_keyboard_interrupt>
80202974: ef d0 1f 89  	jal	0x80200204 <enable_uart_rx_interrupt>
80202978: 13 00 00 00  	nop
8020297c: 83 20 c1 00  	lw	ra, 0xc(sp)
80202980: 03 24 81 00  	lw	s0, 0x8(sp)
80202984: 13 01 01 01  	addi	sp, sp, 0x10
80202988: 67 80 00 00  	ret

8020298c <interrupts_init>:
8020298c: 13 01 01 ff  	addi	sp, sp, -0x10
80202990: 23 26 11 00  	sw	ra, 0xc(sp)
80202994: 23 24 81 00  	sw	s0, 0x8(sp)
80202998: 13 04 01 01  	addi	s0, sp, 0x10
8020299c: 13 05 00 22  	li	a0, 0x220
802029a0: ef f0 df f4  	jal	0x802028ec <system_interrupts_init>
802029a4: ef f0 1f fa  	jal	0x80202944 <plic_interrupts_init>
802029a8: 13 05 80 3e  	li	a0, 0x3e8
802029ac: ef f0 9f e6  	jal	0x80202814 <setup_timer_int_csrs>
802029b0: 13 00 00 00  	nop
802029b4: 83 20 c1 00  	lw	ra, 0xc(sp)
802029b8: 03 24 81 00  	lw	s0, 0x8(sp)
802029bc: 13 01 01 01  	addi	sp, sp, 0x10
802029c0: 67 80 00 00  	ret

802029c4 <sti_handler>:
802029c4: 13 01 01 fb  	addi	sp, sp, -0x50
802029c8: 23 26 11 04  	sw	ra, 0x4c(sp)
802029cc: 23 24 51 04  	sw	t0, 0x48(sp)
802029d0: 23 22 61 04  	sw	t1, 0x44(sp)
802029d4: 23 20 71 04  	sw	t2, 0x40(sp)
802029d8: 23 2e 81 02  	sw	s0, 0x3c(sp)
802029dc: 23 2c a1 02  	sw	a0, 0x38(sp)
802029e0: 23 2a b1 02  	sw	a1, 0x34(sp)
802029e4: 23 28 c1 02  	sw	a2, 0x30(sp)
802029e8: 23 26 d1 02  	sw	a3, 0x2c(sp)
802029ec: 23 24 e1 02  	sw	a4, 0x28(sp)
802029f0: 23 22 f1 02  	sw	a5, 0x24(sp)
802029f4: 23 20 01 03  	sw	a6, 0x20(sp)
802029f8: 23 2e 11 01  	sw	a7, 0x1c(sp)
802029fc: 23 2c c1 01  	sw	t3, 0x18(sp)
80202a00: 23 2a d1 01  	sw	t4, 0x14(sp)
80202a04: 23 28 e1 01  	sw	t5, 0x10(sp)
80202a08: 23 26 f1 01  	sw	t6, 0xc(sp)
80202a0c: 13 04 01 05  	addi	s0, sp, 0x50
80202a10: b7 27 da 80  	lui	a5, 0x80da2
80202a14: 83 a7 87 c7  	lw	a5, -0x388(a5)
80202a18: 63 9a 07 00  	bnez	a5, 0x80202a2c <sti_handler+0x68>
80202a1c: ef f0 9f c7  	jal	0x80202694 <read_csr_sepc>
80202a20: 13 07 05 00  	mv	a4, a0
80202a24: b7 27 da 80  	lui	a5, 0x80da2
80202a28: 23 ac e7 c6  	sw	a4, -0x388(a5)
80202a2c: ef e0 0f fe  	jal	0x8020120c <schedule>
80202a30: b7 27 da 80  	lui	a5, 0x80da2
80202a34: 03 a7 87 c6  	lw	a4, -0x398(a5)
80202a38: 83 a7 c7 c6  	lw	a5, -0x394(a5)
80202a3c: 13 05 10 00  	li	a0, 0x1
80202a40: 93 05 00 00  	li	a1, 0x0
80202a44: 33 06 a7 00  	add	a2, a4, a0
80202a48: 13 08 06 00  	mv	a6, a2
80202a4c: 33 38 e8 00  	sltu	a6, a6, a4
80202a50: b3 86 b7 00  	add	a3, a5, a1
80202a54: b3 07 d8 00  	add	a5, a6, a3
80202a58: 93 86 07 00  	mv	a3, a5
80202a5c: 13 07 06 00  	mv	a4, a2
80202a60: 93 87 06 00  	mv	a5, a3
80202a64: b7 26 da 80  	lui	a3, 0x80da2
80202a68: 23 a4 e6 c6  	sw	a4, -0x398(a3)
80202a6c: 23 a6 f6 c6  	sw	a5, -0x394(a3)
80202a70: 13 05 80 3e  	li	a0, 0x3e8
80202a74: ef f0 1f da  	jal	0x80202814 <setup_timer_int_csrs>
80202a78: 13 00 00 00  	nop
80202a7c: 83 20 c1 04  	lw	ra, 0x4c(sp)
80202a80: 83 22 81 04  	lw	t0, 0x48(sp)
80202a84: 03 23 41 04  	lw	t1, 0x44(sp)
80202a88: 83 23 01 04  	lw	t2, 0x40(sp)
80202a8c: 03 24 c1 03  	lw	s0, 0x3c(sp)
80202a90: 03 25 81 03  	lw	a0, 0x38(sp)
80202a94: 83 25 41 03  	lw	a1, 0x34(sp)
80202a98: 03 26 01 03  	lw	a2, 0x30(sp)
80202a9c: 83 26 c1 02  	lw	a3, 0x2c(sp)
80202aa0: 03 27 81 02  	lw	a4, 0x28(sp)
80202aa4: 83 27 41 02  	lw	a5, 0x24(sp)
80202aa8: 03 28 01 02  	lw	a6, 0x20(sp)
80202aac: 83 28 c1 01  	lw	a7, 0x1c(sp)
80202ab0: 03 2e 81 01  	lw	t3, 0x18(sp)
80202ab4: 83 2e 41 01  	lw	t4, 0x14(sp)
80202ab8: 03 2f 01 01  	lw	t5, 0x10(sp)
80202abc: 83 2f c1 00  	lw	t6, 0xc(sp)
80202ac0: 13 01 01 05  	addi	sp, sp, 0x50
80202ac4: 73 00 20 10  	sret

80202ac8 <seie_handler>:
80202ac8: 13 01 01 fa  	addi	sp, sp, -0x60
80202acc: 23 2e 11 04  	sw	ra, 0x5c(sp)
80202ad0: 23 2c 51 04  	sw	t0, 0x58(sp)
80202ad4: 23 2a 61 04  	sw	t1, 0x54(sp)
80202ad8: 23 28 71 04  	sw	t2, 0x50(sp)
80202adc: 23 26 81 04  	sw	s0, 0x4c(sp)
80202ae0: 23 24 a1 04  	sw	a0, 0x48(sp)
80202ae4: 23 22 b1 04  	sw	a1, 0x44(sp)
80202ae8: 23 20 c1 04  	sw	a2, 0x40(sp)
80202aec: 23 2e d1 02  	sw	a3, 0x3c(sp)
80202af0: 23 2c e1 02  	sw	a4, 0x38(sp)
80202af4: 23 2a f1 02  	sw	a5, 0x34(sp)
80202af8: 23 28 01 03  	sw	a6, 0x30(sp)
80202afc: 23 26 11 03  	sw	a7, 0x2c(sp)
80202b00: 23 24 c1 03  	sw	t3, 0x28(sp)
80202b04: 23 22 d1 03  	sw	t4, 0x24(sp)
80202b08: 23 20 e1 03  	sw	t5, 0x20(sp)
80202b0c: 23 2e f1 01  	sw	t6, 0x1c(sp)
80202b10: 13 04 01 06  	addi	s0, sp, 0x60
80202b14: b7 17 20 00  	lui	a5, 0x201
80202b18: 13 85 47 00  	addi	a0, a5, 0x4
80202b1c: ef d0 9f f5  	jal	0x80200a74 <read_claim_plic_int_msg>
80202b20: 23 26 a4 fa  	sw	a0, -0x54(s0)
80202b24: 03 27 c4 fa  	lw	a4, -0x54(s0)
80202b28: 93 07 a0 00  	li	a5, 0xa
80202b2c: 63 10 f7 02  	bne	a4, a5, 0x80202b4c <seie_handler+0x84>
80202b30: ef d0 4f f0  	jal	0x80200234 <uart_readchar>
80202b34: 93 07 05 00  	mv	a5, a0
80202b38: a3 05 f4 fa  	sb	a5, -0x55(s0)
80202b3c: 83 47 b4 fa  	lbu	a5, -0x55(s0)
80202b40: 13 85 07 00  	mv	a0, a5
80202b44: ef f0 df a7  	jal	0x802025c0 <process_keys>
80202b48: 6f 00 80 01  	j	0x80202b60 <seie_handler+0x98>
80202b4c: 83 25 c4 fa  	lw	a1, -0x54(s0)
80202b50: b7 37 20 80  	lui	a5, 0x80203
80202b54: 13 85 87 eb  	addi	a0, a5, -0x148
80202b58: ef d0 4f fc  	jal	0x8020031c <uart_printf>
80202b5c: 13 00 00 00  	nop
80202b60: 83 25 c4 fa  	lw	a1, -0x54(s0)
80202b64: b7 17 20 00  	lui	a5, 0x201
80202b68: 13 85 47 00  	addi	a0, a5, 0x4
80202b6c: ef d0 df f3  	jal	0x80200aa8 <send_complete_plic_int_ID>
80202b70: 13 00 00 00  	nop
80202b74: 83 20 c1 05  	lw	ra, 0x5c(sp)
80202b78: 83 22 81 05  	lw	t0, 0x58(sp)
80202b7c: 03 23 41 05  	lw	t1, 0x54(sp)
80202b80: 83 23 01 05  	lw	t2, 0x50(sp)
80202b84: 03 24 c1 04  	lw	s0, 0x4c(sp)
80202b88: 03 25 81 04  	lw	a0, 0x48(sp)
80202b8c: 83 25 41 04  	lw	a1, 0x44(sp)
80202b90: 03 26 01 04  	lw	a2, 0x40(sp)
80202b94: 83 26 c1 03  	lw	a3, 0x3c(sp)
80202b98: 03 27 81 03  	lw	a4, 0x38(sp)
80202b9c: 83 27 41 03  	lw	a5, 0x34(sp)
80202ba0: 03 28 01 03  	lw	a6, 0x30(sp)
80202ba4: 83 28 c1 02  	lw	a7, 0x2c(sp)
80202ba8: 03 2e 81 02  	lw	t3, 0x28(sp)
80202bac: 83 2e 41 02  	lw	t4, 0x24(sp)
80202bb0: 03 2f 01 02  	lw	t5, 0x20(sp)
80202bb4: 83 2f c1 01  	lw	t6, 0x1c(sp)
80202bb8: 13 01 01 06  	addi	sp, sp, 0x60
80202bbc: 73 00 20 10  	sret

80202bc0 <stvec_idt>:
		...
80202bd4: 6f f0 1f df  	j	0x802029c4 <sti_handler>
		...
80202be4: 6f f0 5f ee  	j	0x80202ac8 <seie_handler>
80202be8: 13 00 00 00  	nop
		...

80202bf4 <kmain>:
80202bf4: 13 01 01 fd  	addi	sp, sp, -0x30
80202bf8: 23 26 11 02  	sw	ra, 0x2c(sp)
80202bfc: 23 24 81 02  	sw	s0, 0x28(sp)
80202c00: 13 04 01 03  	addi	s0, sp, 0x30
80202c04: b7 37 20 80  	lui	a5, 0x80203
80202c08: 93 87 47 ef  	addi	a5, a5, -0x10c
80202c0c: 83 a5 07 00  	lw	a1, 0x0(a5)
80202c10: 03 a6 47 00  	lw	a2, 0x4(a5)
80202c14: 83 a6 87 00  	lw	a3, 0x8(a5)
80202c18: 03 a7 c7 00  	lw	a4, 0xc(a5)
80202c1c: 23 2e b4 fc  	sw	a1, -0x24(s0)
80202c20: 23 20 c4 fe  	sw	a2, -0x20(s0)
80202c24: 23 22 d4 fe  	sw	a3, -0x1c(s0)
80202c28: 23 24 e4 fe  	sw	a4, -0x18(s0)
80202c2c: 83 d7 07 01  	lhu	a5, 0x10(a5)
80202c30: 23 16 f4 fe  	sh	a5, -0x14(s0)
80202c34: ef e0 cf 96  	jal	0x80200da0 <initialize_processes>
80202c38: 93 07 c4 fd  	addi	a5, s0, -0x24
80202c3c: 93 85 07 00  	mv	a1, a5
80202c40: b7 37 20 80  	lui	a5, 0x80203
80202c44: 13 85 c7 ed  	addi	a0, a5, -0x124
80202c48: ef d0 4f ed  	jal	0x8020031c <uart_printf>
80202c4c: ef f0 5f c7  	jal	0x802028c0 <reset_interrupts>
80202c50: b7 37 20 80  	lui	a5, 0x80203
80202c54: 13 85 07 ee  	addi	a0, a5, -0x120
80202c58: ef d0 cf e6  	jal	0x802002c4 <uart_prints>
80202c5c: ef f0 1f d3  	jal	0x8020298c <interrupts_init>
80202c60: 13 00 00 00  	nop
80202c64: 6f f0 df ff  	j	0x80202c60 <kmain+0x6c>
